(lp0
(dp1
S'rating'
p2
VPG-13
p3
sS'director'
p4
VJames Cameron
p5
sS'movie title'
p6
VAvatar
p7
sS'domestic_total_gross'
p8
I760507625
sS'runtime'
p9
I160
sS'release date'
p10
cdatetime
datetime
p11
(S'\x07\xd9\x0c\x12\x00\x00\x00\x00\x00\x00'
p12
tp13
Rp14
sa(dp15
g2
VPG-13
p16
sg4
VJames Cameron
p17
sg6
VTitanic
p18
sg8
I658672302
sg9
I194
sg10
g11
(S'\x07\xcd\x0c\x13\x00\x00\x00\x00\x00\x00'
p19
tp20
Rp21
sa(dp22
g2
VPG-13
p23
sg4
VJoss Whedon
p24
sg6
VMarvel's The Avengers
p25
sg8
I623357910
sg9
I142
sg10
g11
(S'\x07\xdc\x05\x04\x00\x00\x00\x00\x00\x00'
p26
tp27
Rp28
sa(dp29
g2
VPG-13
p30
sg4
VChristopher Nolan
p31
sg6
VThe Dark Knight
p32
sg8
I534858444
sg9
I150
sg10
g11
(S'\x07\xd8\x07\x12\x00\x00\x00\x00\x00\x00'
p33
tp34
Rp35
sa(dp36
g2
VPG
p37
sg4
VGeorge Lucas
p38
sg6
VStar Wars: Episode I - The Phantom Menace
p39
sg8
I474544677
sg9
I133
sg10
g11
(S'\x07\xcf\x05\x13\x00\x00\x00\x00\x00\x00'
p40
tp41
Rp42
sa(dp43
g2
VPG
p44
sg4
VGeorge Lucas
p45
sg6
VStar Wars
p46
sg8
I460998007
sg9
I121
sg10
g11
(S'\x07\xb9\x05\x19\x00\x00\x00\x00\x00\x00'
p47
tp48
Rp49
sa(dp50
g2
VPG-13
p51
sg4
VChristopher Nolan
p52
sg6
VThe Dark Knight Rises
p53
sg8
I448139099
sg9
I165
sg10
g11
(S'\x07\xdc\x07\x14\x00\x00\x00\x00\x00\x00'
p54
tp55
Rp56
sa(dp57
g2
VPG
p58
sg4
VAndrew AdamsonKelly AsburyConrad Vernon
p59
sg6
VShrek 2
p60
sg8
I441226247
sg9
I93
sg10
g11
(S'\x07\xd4\x05\x13\x00\x00\x00\x00\x00\x00'
p61
tp62
Rp63
sa(dp64
g2
VPG
p65
sg4
VSteven Spielberg
p66
sg6
VE.T.: The Extra-Terrestrial
p67
sg8
I435110554
sg9
I117
sg10
g11
(S'\x07\xbe\x06\x0b\x00\x00\x00\x00\x00\x00'
p68
tp69
Rp70
sa(dp71
g2
VPG-13
p72
sg4
VFrancis Lawrence
p73
sg6
VThe Hunger Games: Catching Fire
p74
sg8
I424668047
sg9
I146
sg10
g11
(S'\x07\xdd\x0b\x16\x00\x00\x00\x00\x00\x00'
p75
tp76
Rp77
sa(dp78
g2
VPG-13
p79
sg4
VGore Verbinski
p80
sg6
VPirates of the Caribbean: Dead Man's Chest
p81
sg8
I423315812
sg9
I151
sg10
g11
(S'\x07\xd6\x07\x07\x00\x00\x00\x00\x00\x00'
p82
tp83
Rp84
sa(dp85
g2
VG
p86
sg4
VRoger AllersRob Minkoff
p87
sg6
VThe Lion King
p88
sg8
I422783777
sg9
I89
sg10
g11
(S'\x07\xca\x06\x0f\x00\x00\x00\x00\x00\x00'
p89
tp90
Rp91
sa(dp92
g2
VG
p93
sg4
VLee Unkrich
p94
sg6
VToy Story 3
p95
sg8
I415004880
sg9
I103
sg10
g11
(S'\x07\xda\x06\x12\x00\x00\x00\x00\x00\x00'
p96
tp97
Rp98
sa(dp99
g2
VPG-13
p100
sg4
VShane Black
p101
sg6
VIron Man 3
p102
sg8
I409013994
sg9
I129
sg10
g11
(S'\x07\xdd\x05\x03\x00\x00\x00\x00\x00\x00'
p103
tp104
Rp105
sa(dp106
g2
VPG-13
p107
sg4
VGary Ross
p108
sg6
VThe Hunger Games
p109
sg8
I408010692
sg9
I142
sg10
g11
(S'\x07\xdc\x03\x17\x00\x00\x00\x00\x00\x00'
p110
tp111
Rp112
sa(dp113
g2
VPG-13
p114
sg4
VSam Raimi
p115
sg6
VSpider-Man
p116
sg8
I403706375
sg9
I121
sg10
g11
(S'\x07\xd2\x05\x03\x00\x00\x00\x00\x00\x00'
p117
tp118
Rp119
sa(dp120
g2
VPG-13
p121
sg4
VSteven Spielberg
p122
sg6
VJurassic Park
p123
sg8
I402453882
sg9
I127
sg10
g11
(S'\x07\xc9\x06\x0b\x00\x00\x00\x00\x00\x00'
p124
tp125
Rp126
sa(dp127
g2
VPG-13
p128
sg4
VMichael Bay
p129
sg6
VTransformers: Revenge of the Fallen
p130
sg8
I402111870
sg9
I144
sg10
g11
(S'\x07\xd9\x06\x18\x00\x00\x00\x00\x00\x00'
p131
tp132
Rp133
sa(dp134
g2
VPG
p135
sg4
VChris BuckJennifer Lee
p136
sg6
VFrozen
p137
sg8
I400738009
sg9
I108
sg10
g11
(S'\x07\xdd\x0b\x16\x00\x00\x00\x00\x00\x00'
p138
tp139
Rp140
sa(dp141
g2
VPG-13
p142
sg4
VDavid Yates
p143
sg6
VHarry Potter and the Deathly Hallows Part 2
p144
sg8
I381011219
sg9
I130
sg10
g11
(S'\x07\xdb\x07\x0f\x00\x00\x00\x00\x00\x00'
p145
tp146
Rp147
sa(dp148
g2
VG
p149
sg4
VAndrew StantonLee Unkrich
p150
sg6
VFinding Nemo
p151
sg8
I380843261
sg9
I104
sg10
g11
(S'\x07\xd3\x05\x1e\x00\x00\x00\x00\x00\x00'
p152
tp153
Rp154
sa(dp155
g2
VPG-13
p156
sg4
VGeorge Lucas
p157
sg6
VStar Wars: Episode III - Revenge of the Sith
p158
sg8
I380270577
sg9
I146
sg10
g11
(S'\x07\xd5\x05\x13\x00\x00\x00\x00\x00\x00'
p159
tp160
Rp161
sa(dp162
g2
VPG-13
p163
sg4
VPeter Jackson
p164
sg6
VThe Lord of the Rings: The Return of the King
p165
sg8
I377845905
sg9
I200
sg10
g11
(S'\x07\xd3\x0c\x11\x00\x00\x00\x00\x00\x00'
p166
tp167
Rp168
sa(dp169
g2
VPG-13
p170
sg4
VSam Raimi
p171
sg6
VSpider-Man 2
p172
sg8
I373585825
sg9
I127
sg10
g11
(S'\x07\xd4\x06\x1e\x00\x00\x00\x00\x00\x00'
p173
tp174
Rp175
sa(dp176
g2
VR
p177
sg4
VMel Gibson
p178
sg6
VThe Passion of the Christ
p179
sg8
I370782930
sg9
I126
sg10
g11
(S'\x07\xd4\x02\x19\x00\x00\x00\x00\x00\x00'
p180
tp181
Rp182
sa(dp183
g2
VPG
p184
sg4
VPierre CoffinChris Renaud
p185
sg6
VDespicable Me 2
p186
sg8
I368061265
sg9
I98
sg10
g11
(S'\x07\xdd\x07\x03\x00\x00\x00\x00\x00\x00'
p187
tp188
Rp189
sa(dp190
g2
VPG-13
p191
sg4
VMichael Bay
p192
sg6
VTransformers: Dark of the Moon
p193
sg8
I352390543
sg9
I154
sg10
g11
(S'\x07\xdb\x06\x1d\x00\x00\x00\x00\x00\x00'
p194
tp195
Rp196
sa(dp197
g2
VPG-13
p198
sg4
VPeter Jackson
p199
sg6
VThe Lord of the Rings: The Two Towers
p200
sg8
I342551365
sg9
I179
sg10
g11
(S'\x07\xd2\x0c\x12\x00\x00\x00\x00\x00\x00'
p201
tp202
Rp203
sa(dp204
g2
VPG-13
p205
sg4
VSam Raimi
p206
sg6
VSpider-Man 3
p207
sg8
I336530303
sg9
I140
sg10
g11
(S'\x07\xd7\x05\x04\x00\x00\x00\x00\x00\x00'
p208
tp209
Rp210
sa(dp211
g2
VPG
p212
sg4
VTim Burton
p213
sg6
VAlice in Wonderland
p214
sg8
I334191110
sg9
I109
sg10
g11
(S'\x07\xda\x03\x05\x00\x00\x00\x00\x00\x00'
p215
tp216
Rp217
sa(dp218
g2
VPG-13
p219
sg4
VRobert Zemeckis
p220
sg6
VForrest Gump
p221
sg8
I330076153
sg9
I141
sg10
g11
(S'\x07\xca\x07\x06\x00\x00\x00\x00\x00\x00'
p222
tp223
Rp224
sa(dp225
g2
VPG
p226
sg4
VChris Miller
p227
sg6
VShrek the Third
p228
sg8
I322719944
sg9
I92
sg10
g11
(S'\x07\xd7\x05\x12\x00\x00\x00\x00\x00\x00'
p229
tp230
Rp231
sa(dp232
g2
VPG-13
p233
sg4
VMichael Bay
p234
sg6
VTransformers
p235
sg8
I319246193
sg9
I143
sg10
g11
(S'\x07\xd7\x07\x03\x00\x00\x00\x00\x00\x00'
p236
tp237
Rp238
sa(dp239
g2
VPG-13
p240
sg4
VJon Favreau
p241
sg6
VIron Man
p242
sg8
I318412101
sg9
I126
sg10
g11
(S'\x07\xd8\x05\x02\x00\x00\x00\x00\x00\x00'
p243
tp244
Rp245
sa(dp246
g2
VPG
p247
sg4
VChris Columbus
p248
sg6
VHarry Potter and the Sorcerer's Stone
p249
sg8
I317575550
sg9
I153
sg10
g11
(S'\x07\xd1\x0b\x10\x00\x00\x00\x00\x00\x00'
p250
tp251
Rp252
sa(dp253
g2
VPG-13
p254
sg4
VSteven Spielberg
p255
sg6
VIndiana Jones and the Kingdom of the Crystal Skull
p256
sg8
I317101119
sg9
I120
sg10
g11
(S'\x07\xd8\x05\x16\x00\x00\x00\x00\x00\x00'
p257
tp258
Rp259
sa(dp260
g2
VPG-13
p261
sg4
VPeter Jackson
p262
sg6
VThe Lord of the Rings: The Fellowship of the Ring
p263
sg8
I315544750
sg9
I178
sg10
g11
(S'\x07\xd1\x0c\x13\x00\x00\x00\x00\x00\x00'
p264
tp265
Rp266
sa(dp267
g2
VPG-13
p268
sg4
VJon Favreau
p269
sg6
VIron Man 2
p270
sg8
I312433331
sg9
I125
sg10
g11
(S'\x07\xda\x05\x07\x00\x00\x00\x00\x00\x00'
p271
tp272
Rp273
sa(dp274
g2
VPG
p275
sg4
VGeorge Lucas
p276
sg6
VStar Wars: Episode II - Attack of the Clones
p277
sg8
I310676740
sg9
I132
sg10
g11
(S'\x07\xd2\x05\x10\x00\x00\x00\x00\x00\x00'
p278
tp279
Rp280
sa(dp281
g2
VPG-13
p282
sg4
VGore Verbinski
p283
sg6
VPirates of the Caribbean: At World's End
p284
sg8
I309420425
sg9
I168
sg10
g11
(S'\x07\xd7\x05\x19\x00\x00\x00\x00\x00\x00'
p285
tp286
Rp287
sa(dp288
g2
VPG
p289
sg4
Nsg6
VReturn of the Jedi
p290
sg8
I309306177
sg9
I134
sg10
g11
(S'\x07\xbf\x05\x19\x00\x00\x00\x00\x00\x00'
p291
tp292
Rp293
sa(dp294
g2
VPG-13
p295
sg4
VRoland Emmerich
p296
sg6
VIndependence Day
p297
sg8
I306169268
sg9
I153
sg10
g11
(S'\x07\xcc\x07\x03\x00\x00\x00\x00\x00\x00'
p298
tp299
Rp300
sa(dp301
g2
VPG-13
p302
sg4
VGore Verbinski
p303
sg6
VPirates of the Caribbean: The Curse of the Black Pearl
p304
sg8
I305413918
sg9
I135
sg10
g11
(S'\x07\xd3\x07\t\x00\x00\x00\x00\x00\x00'
p305
tp306
Rp307
sa(dp308
g2
VPG-13
p309
sg4
VSam Mendes
p310
sg6
VSkyfall
p311
sg8
I304360277
sg9
I143
sg10
g11
(S'\x07\xdc\x0b\t\x00\x00\x00\x00\x00\x00'
p312
tp313
Rp314
sa(dp315
g2
VPG-13
p316
sg4
VPeter Jackson
p317
sg6
VThe Hobbit: An Unexpected Journey
p318
sg8
I303003568
sg9
I166
sg10
g11
(S'\x07\xdc\x0c\x0e\x00\x00\x00\x00\x00\x00'
p319
tp320
Rp321
sa(dp322
g2
VPG
p323
sg4
VDavid Yates
p324
sg6
VHarry Potter and the Half-Blood Prince
p325
sg8
I301959197
sg9
I153
sg10
g11
(S'\x07\xd9\x07\x0f\x00\x00\x00\x00\x00\x00'
p326
tp327
Rp328
sa(dp329
g2
VPG-13
p330
sg4
VDavid Slade
p331
sg6
VThe Twilight Saga: Eclipse
p332
sg8
I300531751
sg9
I124
sg10
g11
(S'\x07\xda\x06\x1e\x00\x00\x00\x00\x00\x00'
p333
tp334
Rp335
sa(dp336
g2
VPG-13
p337
sg4
VChris Weitz
p338
sg6
VThe Twilight Saga: New Moon
p339
sg8
I296623634
sg9
I130
sg10
g11
(S'\x07\xd9\x0b\x14\x00\x00\x00\x00\x00\x00'
p340
tp341
Rp342
sa(dp343
g2
VPG-13
p344
sg4
VDavid Yates
p345
sg6
VHarry Potter and the Deathly Hallows Part 1
p346
sg8
I295983305
sg9
I150
sg10
g11
(S'\x07\xda\x0b\x13\x00\x00\x00\x00\x00\x00'
p347
tp348
Rp349
sa(dp350
g2
VPG-13
p351
sg4
VJames Gunn
p352
sg6
VGuardians of the Galaxy
p353
sg8
I294765199
sg9
I121
sg10
g11
(S'\x07\xde\x08\x01\x00\x00\x00\x00\x00\x00'
p354
tp355
Rp356
sa(dp357
g2
VPG-13
p358
sg4
VM. Night Shyamalan
p359
sg6
VThe Sixth Sense
p360
sg8
I293506292
sg9
I107
sg10
g11
(S'\x07\xcf\x08\x06\x00\x00\x00\x00\x00\x00'
p361
tp362
Rp363
sa(dp364
g2
VPG
p365
sg4
VPete DocterBob Peterson
p366
sg6
VUp
p367
sg8
I293004164
sg9
I96
sg10
g11
(S'\x07\xd9\x05\x1d\x00\x00\x00\x00\x00\x00'
p368
tp369
Rp370
sa(dp371
g2
VPG-13
p372
sg4
VChristopher Nolan
p373
sg6
VInception
p374
sg8
I292576195
sg9
I148
sg10
g11
(S'\x07\xda\x07\x10\x00\x00\x00\x00\x00\x00'
p375
tp376
Rp377
sa(dp378
g2
VPG-13
p379
sg4
VBill Condon
p380
sg6
VThe Twilight Saga: Breaking Dawn Part 2
p381
sg8
I292324737
sg9
I116
sg10
g11
(S'\x07\xdc\x0b\x10\x00\x00\x00\x00\x00\x00'
p382
tp383
Rp384
sa(dp385
g2
VPG-13
p386
sg4
VDavid Yates
p387
sg6
VHarry Potter and the Order of the Phoenix
p388
sg8
I292004738
sg9
I139
sg10
g11
(S'\x07\xd7\x07\x0b\x00\x00\x00\x00\x00\x00'
p389
tp390
Rp391
sa(dp392
g2
VPG
p393
sg4
VAndrew Adamson
p394
sg6
VThe Chronicles of Narnia: The Lion, the Witch and the Wardrobe
p395
sg8
I291710957
sg9
I132
sg10
g11
(S'\x07\xd5\x0c\t\x00\x00\x00\x00\x00\x00'
p396
tp397
Rp398
sa(dp399
g2
VPG-13
p400
sg4
VZack Snyder
p401
sg6
VMan of Steel
p402
sg8
I291045518
sg9
I143
sg10
g11
(S'\x07\xdd\x06\x0e\x00\x00\x00\x00\x00\x00'
p403
tp404
Rp405
sa(dp406
g2
VPG
p407
sg4
VIrvin Kershner
p408
sg6
VThe Empire Strikes Back
p409
sg8
I290475067
sg9
I129
sg10
g11
(S'\x07\xbc\x05\x15\x00\x00\x00\x00\x00\x00'
p410
tp411
Rp412
sa(dp413
g2
VPG-13
p414
sg4
VMike Newell
p415
sg6
VHarry Potter and the Goblet of Fire
p416
sg8
I290013036
sg9
I153
sg10
g11
(S'\x07\xd5\x0b\x12\x00\x00\x00\x00\x00\x00'
p417
tp418
Rp419
sa(dp420
g2
VG
p421
sg4
VPete DocterDavid Silverman (co-director)Lee Unkrich
p422
sg6
VMonsters, Inc.
p423
sg8
I289916256
sg9
I90
sg10
g11
(S'\x07\xd1\x0b\x02\x00\x00\x00\x00\x00\x00'
p424
tp425
Rp426
sa(dp427
g2
VPG
p428
sg4
VChris Columbus
p429
sg6
VHome Alone
p430
sg8
I285761243
sg9
I105
sg10
g11
(S'\x07\xc6\x0b\x10\x00\x00\x00\x00\x00\x00'
p431
tp432
Rp433
sa(dp434
g2
VR
p435
sg4
VAndy & Lana Wachowski
p436
sg6
VThe Matrix Reloaded
p437
sg8
I281576461
sg9
I138
sg10
g11
(S'\x07\xd3\x05\x0f\x00\x00\x00\x00\x00\x00'
p438
tp439
Rp440
sa(dp441
g2
VPG-13
p442
sg4
VBill Condon
p443
sg6
VThe Twilight Saga: Breaking Dawn Part 1
p444
sg8
I281287133
sg9
I108
sg10
g11
(S'\x07\xdb\x0b\x12\x00\x00\x00\x00\x00\x00'
p445
tp446
Rp447
sa(dp448
g2
VPG-13
p449
sg4
VJay Roach
p450
sg6
VMeet the Fockers
p451
sg8
I279261160
sg9
I114
sg10
g11
(S'\x07\xd4\x0c\x16\x00\x00\x00\x00\x00\x00'
p452
tp453
Rp454
sa(dp455
g2
VR
p456
sg4
VTodd Phillips
p457
sg6
VThe Hangover
p458
sg8
I277322503
sg9
I96
sg10
g11
(S'\x07\xd9\x06\x05\x00\x00\x00\x00\x00\x00'
p459
tp460
Rp461
sa(dp462
g2
VPG-13
p463
sg4
VAlfonso Cuaron
p464
sg6
VGravity
p465
sg8
I274092705
sg9
I91
sg10
g11
(S'\x07\xdd\n\x04\x00\x00\x00\x00\x00\x00'
p466
tp467
Rp468
sa(dp469
g2
VG
p470
sg4
VDan Scanlon
p471
sg6
VMonsters University
p472
sg8
I268492764
sg9
I107
sg10
g11
(S'\x07\xdd\x06\x15\x00\x00\x00\x00\x00\x00'
p473
tp474
Rp475
sa(dp476
g2
VPG
p477
sg4
VAndrew Adamson
p478
sg6
VShrek
p479
sg8
I267665011
sg9
I90
sg10
g11
(S'\x07\xd1\x05\x10\x00\x00\x00\x00\x00\x00'
p480
tp481
Rp482
sa(dp483
g2
VPG-13
p484
sg4
VMarc Webb
p485
sg6
VThe Amazing Spider-Man
p486
sg8
I262030663
sg9
I136
sg10
g11
(S'\x07\xdc\x07\x03\x00\x00\x00\x00\x00\x00'
p487
tp488
Rp489
sa(dp490
g2
VPG
p491
sg4
VChris Columbus
p492
sg6
VHarry Potter and the Chamber of Secrets
p493
sg8
I261988482
sg9
I161
sg10
g11
(S'\x07\xd2\x0b\x0f\x00\x00\x00\x00\x00\x00'
p494
tp495
Rp496
sa(dp497
g2
VPG
p498
sg4
VBrad Bird
p499
sg6
VThe Incredibles
p500
sg8
I261441092
sg9
I115
sg10
g11
(S'\x07\xd4\x0b\x05\x00\x00\x00\x00\x00\x00'
p501
tp502
Rp503
sa(dp504
g2
VPG
p505
sg4
VRon Howard
p506
sg6
VHow the Grinch Stole Christmas
p507
sg8
I260044825
sg9
I104
sg10
g11
(S'\x07\xd0\x0b\x11\x00\x00\x00\x00\x00\x00'
p508
tp509
Rp510
sa(dp511
g2
VPG
p512
sg4
VSteven Spielberg
p513
sg6
VJaws
p514
sg8
I260000000
sg9
I125
sg10
g11
(S'\x07\xb7\x06\x14\x00\x00\x00\x00\x00\x00'
p515
tp516
Rp517
sa(dp518
g2
VPG-13
p519
sg4
VAnthony RussoJoe Russo
p520
sg6
VCaptain America: The Winter Soldier
p521
sg8
I259766572
sg9
I136
sg10
g11
(S'\x07\xde\x04\x04\x00\x00\x00\x00\x00\x00'
p522
tp523
Rp524
sa(dp525
g2
VPG-13
p526
sg4
VPeter Jackson
p527
sg6
VThe Hobbit: The Desolation of Smaug
p528
sg8
I258366855
sg9
I161
sg10
g11
(S'\x07\xdd\x0c\r\x00\x00\x00\x00\x00\x00'
p529
tp530
Rp531
sa(dp532
g2
VPG
p533
sg4
VPhil LordChris Miller (II)
p534
sg6
VThe LEGO Movie
p535
sg8
I257760692
sg9
I100
sg10
g11
(S'\x07\xde\x02\x07\x00\x00\x00\x00\x00\x00'
p536
tp537
Rp538
sa(dp539
g2
VPG-13
p540
sg4
VJ.J. Abrams
p541
sg6
VStar Trek
p542
sg8
I257730019
sg9
I126
sg10
g11
(S'\x07\xd9\x05\x08\x00\x00\x00\x00\x00\x00'
p543
tp544
Rp545
sa(dp546
g2
VPG-13
p547
sg4
VFrancis Lawrence
p548
sg6
VI Am Legend
p549
sg8
I256393010
sg9
I100
sg10
g11
(S'\x07\xd7\x0c\x0e\x00\x00\x00\x00\x00\x00'
p550
tp551
Rp552
sa(dp553
g2
VPG-13
p554
sg4
VJohn Lee Hancock
p555
sg6
VThe Blind Side
p556
sg8
I255959475
sg9
I126
sg10
g11
(S'\x07\xd9\x0b\x14\x00\x00\x00\x00\x00\x00'
p557
tp558
Rp559
sa(dp560
g2
VR
p561
sg4
VTodd Phillips
p562
sg6
VThe Hangover Part II
p563
sg8
I254464305
sg9
I102
sg10
g11
(S'\x07\xdb\x05\x1a\x00\x00\x00\x00\x00\x00'
p564
tp565
Rp566
sa(dp567
g2
VPG
p568
sg4
VPierre CoffinChris Renaud
p569
sg6
VDespicable Me
p570
sg8
I251513985
sg9
I95
sg10
g11
(S'\x07\xda\x07\t\x00\x00\x00\x00\x00\x00'
p571
tp572
Rp573
sa(dp574
g2
VPG-13
p575
sg4
VTim Burton
p576
sg6
VBatman
p577
sg8
I251188924
sg9
I126
sg10
g11
(S'\x07\xc5\x06\x17\x00\x00\x00\x00\x00\x00'
p578
tp579
Rp580
sa(dp581
g2
VPG
p582
sg4
VShawn Levy
p583
sg6
VNight at the Museum
p584
sg8
I250863268
sg9
I108
sg10
g11
(S'\x07\xd6\x0c\x16\x00\x00\x00\x00\x00\x00'
p585
tp586
Rp587
sa(dp588
g2
VPG-13
p589
sg4
VBarry Sonnenfeld
p590
sg6
VMen in Black
p591
sg8
I250690539
sg9
I97
sg10
g11
(S'\x07\xcd\x07\x02\x00\x00\x00\x00\x00\x00'
p592
tp593
Rp594
sa(dp595
g2
VPG
p596
sg4
VAlfonso Cuaron
p597
sg6
VHarry Potter and the Prisoner of Azkaban
p598
sg8
I249541069
sg9
I142
sg10
g11
(S'\x07\xd4\x06\x04\x00\x00\x00\x00\x00\x00'
p599
tp600
Rp601
sa(dp602
g2
VPG
p603
sg4
VSteven Spielberg
p604
sg6
VRaiders of the Lost Ark
p605
sg8
I248159971
sg9
I115
sg10
g11
(S'\x07\xbd\x06\x0c\x00\x00\x00\x00\x00\x00'
p606
tp607
Rp608
sa(dp609
g2
VG
p610
sg4
VJohn LasseterLee Unkrich
p611
sg6
VToy Story 2
p612
sg8
I245852179
sg9
I92
sg10
g11
(S'\x07\xcf\x0b\x13\x00\x00\x00\x00\x00\x00'
p613
tp614
Rp615
sa(dp616
g2
VPG-13
p617
sg4
VMichael Bay
p618
sg6
VTransformers: Age of Extinction
p619
sg8
I244736069
sg9
I165
sg10
g11
(S'\x07\xde\x06\x1b\x00\x00\x00\x00\x00\x00'
p620
tp621
Rp622
sa(dp623
g2
VG
p624
sg4
VJohn Lasseter
p625
sg6
VCars
p626
sg8
I244082982
sg9
I116
sg10
g11
(S'\x07\xd6\x06\t\x00\x00\x00\x00\x00\x00'
p627
tp628
Rp629
sa(dp630
g2
VPG-13
p631
sg4
VTom Shadyac
p632
sg6
VBruce Almighty
p633
sg8
I242829261
sg9
I101
sg10
g11
(S'\x07\xd3\x05\x17\x00\x00\x00\x00\x00\x00'
p634
tp635
Rp636
sa(dp637
g2
VPG
p638
sg4
VIvan Reitman
p639
sg6
VGhostbusters
p640
sg8
I241883122
sg9
I107
sg10
g11
(S'\x07\xc0\x06\x08\x00\x00\x00\x00\x00\x00'
p641
tp642
Rp643
sa(dp644
g2
VPG-13
p645
sg4
VJan DeBont
p646
sg6
VTwister
p647
sg8
I241721524
sg9
I113
sg10
g11
(S'\x07\xcc\x05\n\x00\x00\x00\x00\x00\x00'
p648
tp649
Rp650
sa(dp651
g2
VPG
p652
sg4
Nsg6
VMy Big Fat Greek Wedding
p653
sg8
I241438208
sg9
I95
sg10
g11
(S'\x07\xd2\x04\x13\x00\x00\x00\x00\x00\x00'
p654
tp655
Rp656
sa(dp657
g2
VPG-13
p658
sg4
VRob Marshall
p659
sg6
VPirates of the Caribbean: On Stranger Tides
p660
sg8
I241071802
sg9
I137
sg10
g11
(S'\x07\xdb\x05\x14\x00\x00\x00\x00\x00\x00'
p661
tp662
Rp663
sa(dp664
g2
VPG
p665
sg4
VRobert Stromberg
p666
sg6
VMaleficent
p667
sg8
I239251615
sg9
I97
sg10
g11
(S'\x07\xde\x05\x1e\x00\x00\x00\x00\x00\x00'
p668
tp669
Rp670
sa(dp671
g2
VPG
p672
sg4
VMike Mitchell
p673
sg6
VShrek Forever After
p674
sg8
I238736787
sg9
I93
sg10
g11
(S'\x07\xda\x05\x15\x00\x00\x00\x00\x00\x00'
p675
tp676
Rp677
sa(dp678
g2
VPG-13
p679
sg4
VJustin Lin
p680
sg6
VFast & Furious 6
p681
sg8
I238679850
sg9
I130
sg10
g11
(S'\x07\xdd\x05\x18\x00\x00\x00\x00\x00\x00'
p682
tp683
Rp684
sa(dp685
g2
VPG
p686
sg4
VMark AndrewsBrenda Chapman
p687
sg6
VBrave
p688
sg8
I237283207
sg9
I100
sg10
g11
(S'\x07\xdc\x06\x16\x00\x00\x00\x00\x00\x00'
p689
tp690
Rp691
sa(dp692
g2
VPG
p693
sg4
VSam Raimi
p694
sg6
VOz The Great and Powerful
p695
sg8
I234911825
sg9
I127
sg10
g11
(S'\x07\xdd\x03\x08\x00\x00\x00\x00\x00\x00'
p696
tp697
Rp698
sa(dp699
g2
VR
p700
sg4
VMartin Brest
p701
sg6
VBeverly Hills Cop
p702
sg8
I234760478
sg9
I105
sg10
g11
(S'\x07\xc0\x0c\x05\x00\x00\x00\x00\x00\x00'
p703
tp704
Rp705
sa(dp706
g2
VPG-13
p707
sg4
VBrett Ratner
p708
sg6
VX-Men: The Last Stand
p709
sg8
I234362462
sg9
I104
sg10
g11
(S'\x07\xd6\x05\x1a\x00\x00\x00\x00\x00\x00'
p710
tp711
Rp712
sa(dp713
g2
VPG-13
p714
sg4
VSteven Spielberg
p715
sg6
VWar of the Worlds
p716
sg8
I234280354
sg9
I117
sg10
g11
(S'\x07\xd5\x06\x1d\x00\x00\x00\x00\x00\x00'
p717
tp718
Rp719
sa(dp720
g2
VPG-13
p721
sg4
VBryan Singer
p722
sg6
VX-Men: Days of Future Past
p723
sg8
I233660474
sg9
I131
sg10
g11
(S'\x07\xde\x05\x17\x00\x00\x00\x00\x00\x00'
p724
tp725
Rp726
sa(dp727
g2
VPG-13
p728
sg4
VRobert Zemeckis
p729
sg6
VCast Away
p730
sg8
I233632142
sg9
I143
sg10
g11
(S'\x07\xd0\x0c\x16\x00\x00\x00\x00\x00\x00'
p731
tp732
Rp733
sa(dp734
g2
VR
p735
sg4
VWilliam Friedkin
p736
sg6
VThe Exorcist
p737
sg8
I232906145
sg9
I122
sg10
g11
(S'\x07\xb5\x0c\x1a\x00\x00\x00\x00\x00\x00'
p738
tp739
Rp740
sa(dp741
g2
VPG-13
p742
sg4
VSteven Spielberg
p743
sg6
VThe Lost World: Jurassic Park
p744
sg8
I229086679
sg9
I129
sg10
g11
(S'\x07\xcd\x05\x17\x00\x00\x00\x00\x00\x00'
p745
tp746
Rp747
sa(dp748
g2
VPG-13
p749
sg4
VJ.J. Abrams
p750
sg6
VStar Trek Into Darkness
p751
sg8
I228778661
sg9
I123
sg10
g11
(S'\x07\xdd\x05\x10\x00\x00\x00\x00\x00\x00'
p752
tp753
Rp754
sa(dp755
g2
VPG-13
p756
sg4
VM. Night Shyamalan
p757
sg6
VSigns
p758
sg8
I227966634
sg9
I107
sg10
g11
(S'\x07\xd2\x08\x02\x00\x00\x00\x00\x00\x00'
p759
tp760
Rp761
sa(dp762
g2
VPG-13
p763
sg4
VPeter Berg
p764
sg6
VHancock
p765
sg8
I227946274
sg9
I92
sg10
g11
(S'\x07\xd8\x07\x02\x00\x00\x00\x00\x00\x00'
p766
tp767
Rp768
sa(dp769
g2
VPG-13
p770
sg4
VPaul Greengrass
p771
sg6
VThe Bourne Ultimatum
p772
sg8
I227471070
sg9
I111
sg10
g11
(S'\x07\xd7\x08\x03\x00\x00\x00\x00\x00\x00'
p773
tp774
Rp775
sa(dp776
g2
VPG-13
p777
sg4
VBrett Ratner
p778
sg6
VRush Hour 2
p779
sg8
I226164286
sg9
I90
sg10
g11
(S'\x07\xd1\x08\x03\x00\x00\x00\x00\x00\x00'
p780
tp781
Rp782
sa(dp783
g2
VG
p784
sg4
VAndrew Stanton
p785
sg6
VWALL-E
p786
sg8
I223808164
sg9
I97
sg10
g11
(S'\x07\xd8\x06\x1b\x00\x00\x00\x00\x00\x00'
p787
tp788
Rp789
sa(dp790
g2
VPG
p791
sg4
VJon Turteltaub
p792
sg6
VNational Treasure: Book of Secrets
p793
sg8
I219964115
sg9
I124
sg10
g11
(S'\x07\xd7\x0c\x15\x00\x00\x00\x00\x00\x00'
p794
tp795
Rp796
sa(dp797
g2
VPG
p798
sg4
VBetty Thomas
p799
sg6
VAlvin and the Chipmunks: The Squeakquel
p800
sg8
I219614612
sg9
I88
sg10
g11
(S'\x07\xd9\x0c\x17\x00\x00\x00\x00\x00\x00'
p801
tp802
Rp803
sa(dp804
g2
VPG-13
p805
sg4
VChris Columbus
p806
sg6
VMrs. Doubtfire
p807
sg8
I219195243
sg9
I125
sg10
g11
(S'\x07\xc9\x0b\x18\x00\x00\x00\x00\x00\x00'
p808
tp809
Rp810
sa(dp811
g2
VG
p812
sg4
Nsg6
VBeauty and the Beast
p813
sg8
I218967620
sg9
I84
sg10
g11
(S'\x07\xc7\x0b\x0f\x00\x00\x00\x00\x00\x00'
p814
tp815
Rp816
sa(dp817
g2
VR
p818
sg4
VSeth MacFarlane
p819
sg6
VTed
p820
sg8
I218815487
sg9
I106
sg10
g11
(S'\x07\xdc\x06\x1d\x00\x00\x00\x00\x00\x00'
p821
tp822
Rp823
sa(dp824
g2
VPG-13
p825
sg4
VPeter Jackson
p826
sg6
VKing Kong
p827
sg8
I218080025
sg9
I187
sg10
g11
(S'\x07\xd5\x0c\x0e\x00\x00\x00\x00\x00\x00'
p828
tp829
Rp830
sa(dp831
g2
VPG-13
p832
sg4
VJerry Zucker
p833
sg6
VGhost
p834
sg8
I217631306
sg9
I128
sg10
g11
(S'\x07\xc6\x07\r\x00\x00\x00\x00\x00\x00'
p835
tp836
Rp837
sa(dp838
g2
VPG
p839
sg4
VDean DeBloisChris Sanders
p840
sg6
VHow to Train Your Dragon
p841
sg8
I217581231
sg9
I98
sg10
g11
(S'\x07\xda\x03\x1a\x00\x00\x00\x00\x00\x00'
p842
tp843
Rp844
sa(dp845
g2
VPG-13
p846
sg4
VRon Howard
p847
sg6
VThe Da Vinci Code
p848
sg8
I217536138
sg9
I149
sg10
g11
(S'\x07\xd6\x05\x13\x00\x00\x00\x00\x00\x00'
p849
tp850
Rp851
sa(dp852
g2
VG
p853
sg4
Nsg6
VAladdin
p854
sg8
I217350219
sg9
I90
sg10
g11
(S'\x07\xc8\x0b\r\x00\x00\x00\x00\x00\x00'
p855
tp856
Rp857
sa(dp858
g2
VPG
p859
sg4
VTim Hill
p860
sg6
VAlvin and the Chipmunks
p861
sg8
I217326974
sg9
I92
sg10
g11
(S'\x07\xd7\x0c\x0e\x00\x00\x00\x00\x00\x00'
p862
tp863
Rp864
sa(dp865
g2
VR
p866
sg4
VSteven Spielberg
p867
sg6
VSaving Private Ryan
p868
sg8
I216540909
sg9
I170
sg10
g11
(S'\x07\xce\x07\x18\x00\x00\x00\x00\x00\x00'
p869
tp870
Rp871
sa(dp872
g2
VPG
p873
sg4
VEric DarnellTom McGrathConrad Vernon
p874
sg6
VMadagascar 3: Europe's Most Wanted
p875
sg8
I216391482
sg9
I93
sg10
g11
(S'\x07\xdc\x06\x08\x00\x00\x00\x00\x00\x00'
p876
tp877
Rp878
sa(dp879
g2
VPG
p880
sg4
Nsg6
VKung Fu Panda
p881
sg8
I215434591
sg9
I91
sg10
g11
(S'\x07\xd8\x06\x06\x00\x00\x00\x00\x00\x00'
p882
tp883
Rp884
sa(dp885
g2
VPG-13
p886
sg4
VJohn Woo
p887
sg6
VMission: Impossible II
p888
sg8
I215409889
sg9
I123
sg10
g11
(S'\x07\xd0\x05\x18\x00\x00\x00\x00\x00\x00'
p889
tp890
Rp891
sa(dp892
g2
VPG-13
p893
sg4
VBryan Singer
p894
sg6
VX2: X-Men United
p895
sg8
I214949694
sg9
I134
sg10
g11
(S'\x07\xd3\x05\x02\x00\x00\x00\x00\x00\x00'
p896
tp897
Rp898
sa(dp899
g2
VPG
p900
sg4
VChris Renaud
p901
sg6
VDr. Seuss' The Lorax
p902
sg8
I214030500
sg9
I95
sg10
g11
(S'\x07\xdc\x03\x02\x00\x00\x00\x00\x00\x00'
p903
tp904
Rp905
sa(dp906
g2
VPG-13
p907
sg4
VJay Roach
p908
sg6
VAustin Powers in Goldmember
p909
sg8
I213307889
sg9
I94
sg10
g11
(S'\x07\xd2\x07\x1a\x00\x00\x00\x00\x00\x00'
p910
tp911
Rp912
sa(dp913
g2
VR
p914
sg4
VZack Snyder
p915
sg6
V300
p916
sg8
I210614939
sg9
I117
sg10
g11
(S'\x07\xd7\x03\t\x00\x00\x00\x00\x00\x00'
p917
tp918
Rp919
sa(dp920
g2
VPG
p921
sg4
VRobert Zemeckis
p922
sg6
VBack to the Future
p923
sg8
I210609762
sg9
I111
sg10
g11
(S'\x07\xc1\x07\x03\x00\x00\x00\x00\x00\x00'
p924
tp925
Rp926
sa(dp927
g2
VPG-13
p928
sg4
VJustin Lin
p929
sg6
VFast Five
p930
sg8
I209837675
sg9
I130
sg10
g11
(S'\x07\xdb\x04\x1d\x00\x00\x00\x00\x00\x00'
p931
tp932
Rp933
sa(dp934
g2
VPG-13
p935
sg4
VBrad Bird
p936
sg6
VMission: Impossible - Ghost Protocol
p937
sg8
I209397903
sg9
I132
sg10
g11
(S'\x07\xdb\x0c\x10\x00\x00\x00\x00\x00\x00'
p938
tp939
Rp940
sa(dp941
g2
VR
p942
sg4
VDavid Dobkin
p943
sg6
VWedding Crashers
p944
sg8
I209255921
sg9
I113
sg10
g11
(S'\x07\xd5\x07\x0f\x00\x00\x00\x00\x00\x00'
p945
tp946
Rp947
sa(dp948
g2
VPG-13
p949
sg4
VGuy Ritchie
p950
sg6
VSherlock Holmes
p951
sg8
I209028679
sg9
I134
sg10
g11
(S'\x07\xd9\x0c\x19\x00\x00\x00\x00\x00\x00'
p952
tp953
Rp954
sa(dp955
g2
VPG-13
p956
sg4
VChristopher Nolan
p957
sg6
VBatman Begins
p958
sg8
I206852432
sg9
I140
sg10
g11
(S'\x07\xd5\x06\x0f\x00\x00\x00\x00\x00\x00'
p959
tp960
Rp961
sa(dp962
g2
VPG
p963
sg4
VTim Burton
p964
sg6
VCharlie and the Chocolate Factory
p965
sg8
I206459076
sg9
I106
sg10
g11
(S'\x07\xd5\x07\x0f\x00\x00\x00\x00\x00\x00'
p966
tp967
Rp968
sa(dp969
g2
VG
p970
sg4
VBrad Bird
p971
sg6
VRatatouille
p972
sg8
I206445654
sg9
I111
sg10
g11
(S'\x07\xd7\x06\x1d\x00\x00\x00\x00\x00\x00'
p973
tp974
Rp975
sa(dp976
g2
VPG-13
p977
sg4
VAlan Taylor
p978
sg6
VThor: The Dark World
p979
sg8
I206362140
sg9
I120
sg10
g11
(S'\x07\xdd\x0b\x08\x00\x00\x00\x00\x00\x00'
p980
tp981
Rp982
sa(dp983
g2
VPG-13
p984
sg4
VMatt Reeves
p985
sg6
VDawn of the Planet of the Apes
p986
sg8
I206225085
sg9
I130
sg10
g11
(S'\x07\xde\x07\x0b\x00\x00\x00\x00\x00\x00'
p987
tp988
Rp989
sa(dp990
g2
VPG-13
p991
sg4
VJay Roach
p992
sg6
VAustin Powers: The Spy Who Shagged Me
p993
sg8
I206040086
sg9
I95
sg10
g11
(S'\x07\xcf\x06\x0b\x00\x00\x00\x00\x00\x00'
p994
tp995
Rp996
sa(dp997
g2
VR
p998
sg4
VJames Cameron
p999
sg6
VTerminator 2: Judgment Day
p1000
sg8
I204843345
sg9
I137
sg10
g11
(S'\x07\xc7\x07\x03\x00\x00\x00\x00\x00\x00'
p1001
tp1002
Rp1003
sa(dp1004
g2
VPG-13
p1005
sg4
VMarc Webb
p1006
sg6
VThe Amazing Spider-Man 2
p1007
sg8
I202853933
sg9
I142
sg10
g11
(S'\x07\xde\x05\x02\x00\x00\x00\x00\x00\x00'
p1008
tp1009
Rp1010
sa(dp1011
g2
VPG-13
p1012
sg4
VMarc Forster
p1013
sg6
VWorld War Z
p1014
sg8
I202359711
sg9
I116
sg10
g11
(S'\x07\xdd\x06\x15\x00\x00\x00\x00\x00\x00'
p1015
tp1016
Rp1017
sa(dp1018
g2
VPG-13
p1019
sg4
VStephen Sommers
p1020
sg6
VThe Mummy Returns
p1021
sg8
I202019785
sg9
I130
sg10
g11
(S'\x07\xd1\x05\x04\x00\x00\x00\x00\x00\x00'
p1022
tp1023
Rp1024
sa(dp1025
g2
VPG-13
p1026
sg4
VMichael Bay
p1027
sg6
VArmageddon
p1028
sg8
I201578182
sg9
I144
sg10
g11
(S'\x07\xce\x07\x01\x00\x00\x00\x00\x00\x00'
p1029
tp1030
Rp1031
sa(dp1032
g2
VPG
p1033
sg4
VNathan GrenoByron Howard
p1034
sg6
VTangled
p1035
sg8
I200821936
sg9
I100
sg10
g11
(S'\x07\xda\x0b\x18\x00\x00\x00\x00\x00\x00'
p1036
tp1037
Rp1038
sa(dp1039
g2
VPG-13
p1040
sg4
VGareth Edwards
p1041
sg6
VGodzilla
p1042
sg8
I200676069
sg9
I123
sg10
g11
(S'\x07\xde\x05\x10\x00\x00\x00\x00\x00\x00'
p1043
tp1044
Rp1045
sa(dp1046
g2
VPG-13
p1047
sg4
VBryan Singer
p1048
sg6
VSuperman Returns
p1049
sg8
I200081192
sg9
I154
sg10
g11
(S'\x07\xd6\x06\x1c\x00\x00\x00\x00\x00\x00'
p1050
tp1051
Rp1052
sa(dp1053
g2
VG
p1054
sg4
VVictor Fleming
p1055
sg6
VGone with the Wind
p1056
sg8
I198676459
sg9
I238
sg10
g11
(S'\x07\x93\x0c\x0f\x00\x00\x00\x00\x00\x00'
p1057
tp1058
Rp1059
sa(dp1060
g2
VPG-13
p1061
sg4
VMichael Bay
p1062
sg6
VPearl Harbor
p1063
sg8
I198542554
sg9
I183
sg10
g11
(S'\x07\xd1\x05\x19\x00\x00\x00\x00\x00\x00'
p1064
tp1065
Rp1066
sa(dp1067
g2
VPG
p1068
sg4
VRob LettermanConrad Vernon
p1069
sg6
VMonsters Vs. Aliens
p1070
sg8
I198351526
sg9
I94
sg10
g11
(S'\x07\xd9\x03\x1b\x00\x00\x00\x00\x00\x00'
p1071
tp1072
Rp1073
sa(dp1074
g2
VPG
p1075
sg4
VGeorge Miller
p1076
sg6
VHappy Feet
p1077
sg8
I198000317
sg9
I108
sg10
g11
(S'\x07\xd6\x0b\x11\x00\x00\x00\x00\x00\x00'
p1078
tp1079
Rp1080
sa(dp1081
g2
VPG-13
p1082
sg4
VSteven Spielberg
p1083
sg6
VIndiana Jones and the Last Crusade
p1084
sg8
I197171806
sg9
I127
sg10
g11
(S'\x07\xc5\x05\x18\x00\x00\x00\x00\x00\x00'
p1085
tp1086
Rp1087
sa(dp1088
g2
VPG
p1089
sg4
VCarlos Saldanha
p1090
sg6
VIce Age: Dawn of the Dinosaurs
p1091
sg8
I196573705
sg9
I87
sg10
g11
(S'\x07\xd9\x07\x01\x00\x00\x00\x00\x00\x00'
p1092
tp1093
Rp1094
sa(dp1095
g2
VPG
p1096
sg4
VCarlos Saldanha
p1097
sg6
VIce Age: The Meltdown
p1098
sg8
I195330621
sg9
I90
sg10
g11
(S'\x07\xd6\x03\x1f\x00\x00\x00\x00\x00\x00'
p1099
tp1100
Rp1101
sa(dp1102
g2
VPG
p1103
sg4
VEric DarnellTom McGrath
p1104
sg6
VMadagascar
p1105
sg8
I193595521
sg9
I86
sg10
g11
(S'\x07\xd5\x05\x1b\x00\x00\x00\x00\x00\x00'
p1106
tp1107
Rp1108
sa(dp1109
g2
VPG-13
p1110
sg4
VCatherine Hardwicke
p1111
sg6
VTwilight
p1112
sg8
I192769854
sg9
I120
sg10
g11
(S'\x07\xd8\x0b\x15\x00\x00\x00\x00\x00\x00'
p1113
tp1114
Rp1115
sa(dp1116
g2
VG
p1117
sg4
VJohn Lasseter
p1118
sg6
VToy Story
p1119
sg8
I191796233
sg9
I81
sg10
g11
(S'\x07\xcb\x0b\x16\x00\x00\x00\x00\x00\x00'
p1120
tp1121
Rp1122
sa(dp1123
g2
VG
p1124
sg4
VJohn LasseterBrad Lewis (co-director)
p1125
sg6
VCars 2
p1126
sg8
I191452396
sg9
I113
sg10
g11
(S'\x07\xdb\x06\x18\x00\x00\x00\x00\x00\x00'
p1127
tp1128
Rp1129
sa(dp1130
g2
VR
p1131
sg4
VPhil LordChris Miller (II)
p1132
sg6
V22 Jump Street
p1133
sg8
I190822916
sg9
I112
sg10
g11
(S'\x07\xde\x06\r\x00\x00\x00\x00\x00\x00'
p1134
tp1135
Rp1136
sa(dp1137
g2
VPG-13
p1138
sg4
VBarry Sonnenfeld
p1139
sg6
VMen in Black II
p1140
sg8
I190418803
sg9
I88
sg10
g11
(S'\x07\xd2\x07\x03\x00\x00\x00\x00\x00\x00'
p1141
tp1142
Rp1143
sa(dp1144
g2
VPG
p1145
sg4
VRich Moore
p1146
sg6
VWreck-It Ralph
p1147
sg8
I189422889
sg9
I108
sg10
g11
(S'\x07\xdc\x0b\x02\x00\x00\x00\x00\x00\x00'
p1148
tp1149
Rp1150
sa(dp1151
g2
VPG
p1152
sg4
Nsg6
VGrease
p1153
sg8
I188755690
sg9
I110
sg10
g11
(S'\x07\xba\x06\x10\x00\x00\x00\x00\x00\x00'
p1154
tp1155
Rp1156
sa(dp1157
g2
VR
p1158
sg4
VRidley Scott
p1159
sg6
VGladiator
p1160
sg8
I187705427
sg9
I155
sg10
g11
(S'\x07\xd0\x05\x05\x00\x00\x00\x00\x00\x00'
p1161
tp1162
Rp1163
sa(dp1164
g2
VPG
p1165
sg4
VKirk De MiccoChris Sanders
p1166
sg6
VThe Croods
p1167
sg8
I187168425
sg9
I98
sg10
g11
(S'\x07\xdd\x03\x16\x00\x00\x00\x00\x00\x00'
p1168
tp1169
Rp1170
sa(dp1171
g2
VPG-13
p1172
sg4
VGuy Ritchie
p1173
sg6
VSherlock Holmes: A Game of Shadows
p1174
sg8
I186848418
sg9
I128
sg10
g11
(S'\x07\xdb\x0c\x10\x00\x00\x00\x00\x00\x00'
p1175
tp1176
Rp1177
sa(dp1178
g2
VPG-13
p1179
sg4
VRoland Emmerich
p1180
sg6
VThe Day After Tomorrow
p1181
sg8
I186740799
sg9
I124
sg10
g11
(S'\x07\xd4\x05\x1c\x00\x00\x00\x00\x00\x00'
p1182
tp1183
Rp1184
sa(dp1185
g2
VPG-13
p1186
sg4
VDoug Liman
p1187
sg6
VMr. & Mrs. Smith
p1188
sg8
I186336279
sg9
I115
sg10
g11
(S'\x07\xd5\x06\n\x00\x00\x00\x00\x00\x00'
p1189
tp1190
Rp1191
sa(dp1192
g2
VG
p1193
sg4
Nsg6
VSnow White and the Seven Dwarfs
p1194
sg8
I184925486
sg9
I83
sg10
g11
(S'\x07\x91\x0c\x15\x00\x00\x00\x00\x00\x00'
p1195
tp1196
Rp1197
sa(dp1198
g2
VPG-13
p1199
sg4
VKevin Costner
p1200
sg6
VDances with Wolves
p1201
sg8
I184208848
sg9
I183
sg10
g11
(S'\x07\xc6\x0b\t\x00\x00\x00\x00\x00\x00'
p1202
tp1203
Rp1204
sa(dp1205
g2
VPG-13
p1206
sg4
VJoel Schumacher
p1207
sg6
VBatman Forever
p1208
sg8
I184031112
sg9
I122
sg10
g11
(S'\x07\xcb\x06\x10\x00\x00\x00\x00\x00\x00'
p1209
tp1210
Rp1211
sa(dp1212
g2
VPG-13
p1213
sg4
VAndrew Davis
p1214
sg6
VThe Fugitive
p1215
sg8
I183875760
sg9
I130
sg10
g11
(S'\x07\xc9\x08\x06\x00\x00\x00\x00\x00\x00'
p1216
tp1217
Rp1218
sa(dp1219
g2
VPG-13
p1220
sg4
VSteven Soderbergh
p1221
sg6
VOcean's Eleven
p1222
sg8
I183417150
sg9
I116
sg10
g11
(S'\x07\xd1\x0c\x07\x00\x00\x00\x00\x00\x00'
p1223
tp1224
Rp1225
sa(dp1226
g2
VG
p1227
sg4
VRobert Zemeckis
p1228
sg6
VThe Polar Express
p1229
sg8
I183373735
sg9
I100
sg10
g11
(S'\x07\xd4\x0b\n\x00\x00\x00\x00\x00\x00'
p1230
tp1231
Rp1232
sa(dp1233
g2
VPG-13
p1234
sg4
VDavid Silverman
p1235
sg6
VThe Simpsons Movie
p1236
sg8
I183135014
sg9
I87
sg10
g11
(S'\x07\xd7\x07\x1b\x00\x00\x00\x00\x00\x00'
p1237
tp1238
Rp1239
sa(dp1240
g2
VPG-13
p1241
sg4
VNancy Meyers
p1242
sg6
VWhat Women Want
p1243
sg8
I182811707
sg9
I127
sg10
g11
(S'\x07\xd0\x0c\x0f\x00\x00\x00\x00\x00\x00'
p1244
tp1245
Rp1246
sa(dp1247
g2
VPG-13
p1248
sg4
VWolfgang Petersen
p1249
sg6
VThe Perfect Storm
p1250
sg8
I182618434
sg9
I129
sg10
g11
(S'\x07\xd0\x06\x1e\x00\x00\x00\x00\x00\x00'
p1251
tp1252
Rp1253
sa(dp1254
g2
VPG-13
p1255
sg4
VSteven Spielberg
p1256
sg6
VLincoln
p1257
sg8
I182207973
sg9
I145
sg10
g11
(S'\x07\xdc\x0b\t\x00\x00\x00\x00\x00\x00'
p1258
tp1259
Rp1260
sa(dp1261
g2
VPG-13
p1262
sg4
VTom Shadyac
p1263
sg6
VLiar Liar
p1264
sg8
I181410615
sg9
I86
sg10
g11
(S'\x07\xcd\x03\x15\x00\x00\x00\x00\x00\x00'
p1265
tp1266
Rp1267
sa(dp1268
g2
VPG-13
p1269
sg4
VJoe Johnston
p1270
sg6
VJurassic Park III
p1271
sg8
I181171875
sg9
I92
sg10
g11
(S'\x07\xd1\x07\x12\x00\x00\x00\x00\x00\x00'
p1272
tp1273
Rp1274
sa(dp1275
g2
VPG-13
p1276
sg4
VKenneth Branagh
p1277
sg6
VThor
p1278
sg8
I181030624
sg9
I115
sg10
g11
(S'\x07\xdb\x05\x06\x00\x00\x00\x00\x00\x00'
p1279
tp1280
Rp1281
sa(dp1282
g2
VPG-13
p1283
sg4
VBrian De Palma
p1284
sg6
VMission: Impossible
p1285
sg8
I180981856
sg9
I110
sg10
g11
(S'\x07\xcc\x05\x16\x00\x00\x00\x00\x00\x00'
p1286
tp1287
Rp1288
sa(dp1289
g2
VPG-13
p1290
sg4
VTim Burton
p1291
sg6
VPlanet of the Apes
p1292
sg8
I180011740
sg9
I119
sg10
g11
(S'\x07\xd1\x07\x1b\x00\x00\x00\x00\x00\x00'
p1293
tp1294
Rp1295
sa(dp1296
g2
VPG
p1297
sg4
VEric DarnellTom McGrath
p1298
sg6
VMadagascar: Escape 2 Africa
p1299
sg8
I180010950
sg9
I89
sg10
g11
(S'\x07\xd8\x0b\x07\x00\x00\x00\x00\x00\x00'
p1300
tp1301
Rp1302
sa(dp1303
g2
VPG-13
p1304
sg4
VGavin Hood
p1305
sg6
VX-Men Origins: Wolverine
p1306
sg8
I179883157
sg9
I107
sg10
g11
(S'\x07\xd9\x05\x01\x00\x00\x00\x00\x00\x00'
p1307
tp1308
Rp1309
sa(dp1310
g2
VPG
p1311
sg4
VSteven Spielberg
p1312
sg6
VIndiana Jones and the Temple of Doom
p1313
sg8
I179870271
sg9
I118
sg10
g11
(S'\x07\xc0\x05\x17\x00\x00\x00\x00\x00\x00'
p1314
tp1315
Rp1316
sa(dp1317
g2
VPG
p1318
sg4
VTony Scott
p1319
sg6
VTop Gun
p1320
sg8
I179800601
sg9
I110
sg10
g11
(S'\x07\xc2\x05\x10\x00\x00\x00\x00\x00\x00'
p1321
tp1322
Rp1323
sa(dp1324
g2
VPG-13
p1325
sg4
VAndy Tennant
p1326
sg6
VHitch
p1327
sg8
I179495555
sg9
I115
sg10
g11
(S'\x07\xd5\x02\x0b\x00\x00\x00\x00\x00\x00'
p1328
tp1329
Rp1330
sa(dp1331
g2
VPG-13
p1332
sg4
VBarry Sonnenfeld
p1333
sg6
VMIB 3
p1334
sg8
I179020854
sg9
I106
sg10
g11
(S'\x07\xdc\x05\x19\x00\x00\x00\x00\x00\x00'
p1335
tp1336
Rp1337
sa(dp1338
g2
VR
p1339
sg4
VGarry Marshall
p1340
sg6
VPretty Woman
p1341
sg8
I178406268
sg9
I119
sg10
g11
(S'\x07\xc6\x03\x17\x00\x00\x00\x00\x00\x00'
p1342
tp1343
Rp1344
sa(dp1345
g2
VPG
p1346
sg4
VShawn Levy
p1347
sg6
VNight at the Museum: Battle of the Smithsonian
p1348
sg8
I177243721
sg9
I105
sg10
g11
(S'\x07\xd9\x05\x16\x00\x00\x00\x00\x00\x00'
p1349
tp1350
Rp1351
sa(dp1352
g2
VPG
p1353
sg4
VSydney Pollack
p1354
sg6
VTootsie
p1355
sg8
I177200000
sg9
I119
sg10
g11
(S'\x07\xbe\x0c\x11\x00\x00\x00\x00\x00\x00'
p1356
tp1357
Rp1358
sa(dp1359
g2
VPG-13
p1360
sg4
VRupert Wyatt
p1361
sg6
VRise of the Planet of the Apes
p1362
sg8
I176760185
sg9
I110
sg10
g11
(S'\x07\xdb\x08\x05\x00\x00\x00\x00\x00\x00'
p1363
tp1364
Rp1365
sa(dp1366
g2
VPG-13
p1367
sg4
VJoe Johnston
p1368
sg6
VCaptain America: The First Avenger
p1369
sg8
I176654505
sg9
I125
sg10
g11
(S'\x07\xdb\x07\x16\x00\x00\x00\x00\x00\x00'
p1370
tp1371
Rp1372
sa(dp1373
g2
VPG
p1374
sg4
VHarald Zwart
p1375
sg6
VThe Karate Kid
p1376
sg8
I176591618
sg9
I140
sg10
g11
(S'\x07\xda\x06\x0b\x00\x00\x00\x00\x00\x00'
p1377
tp1378
Rp1379
sa(dp1380
g2
VR
p1381
sg4
VThe Farrelly Bros.
p1382
sg6
VThere's Something About Mary
p1383
sg8
I176484651
sg9
I119
sg10
g11
(S'\x07\xce\x07\x0f\x00\x00\x00\x00\x00\x00'
p1384
tp1385
Rp1386
sa(dp1387
g2
VPG
p1388
sg4
VCarlos Saldanha (co-director)Chris Wedge
p1389
sg6
VIce Age
p1390
sg8
I176387405
sg9
I81
sg10
g11
(S'\x07\xd2\x03\x0f\x00\x00\x00\x00\x00\x00'
p1391
tp1392
Rp1393
sa(dp1394
g2
VPG-13
p1395
sg4
VPaul Greengrass
p1396
sg6
VThe Bourne Supremacy
p1397
sg8
I176241941
sg9
I108
sg10
g11
(S'\x07\xd4\x07\x17\x00\x00\x00\x00\x00\x00'
p1398
tp1399
Rp1400
sa(dp1401
g2
VPG-13
p1402
sg4
Nsg6
VCrocodile Dundee
p1403
sg8
I174803506
sg9
I93
sg10
g11
(S'\x07\xc2\t\x1a\x00\x00\x00\x00\x00\x00'
p1404
tp1405
Rp1406
sa(dp1407
g2
VPG
p1408
sg4
VDean DeBlois
p1409
sg6
VHow to Train Your Dragon 2
p1410
sg8
I174725162
sg9
I105
sg10
g11
(S'\x07\xde\x06\r\x00\x00\x00\x00\x00\x00'
p1411
tp1412
Rp1413
sa(dp1414
g2
VPG-13
p1415
sg4
VJonathan Liebesman
p1416
sg6
VTeenage Mutant Ninja Turtles
p1417
sg8
I174653217
sg9
I101
sg10
g11
(S'\x07\xde\x08\x08\x00\x00\x00\x00\x00\x00'
p1418
tp1419
Rp1420
sa(dp1421
g2
VPG
p1422
sg4
VRon Howard
p1423
sg6
VApollo 13
p1424
sg8
I173837933
sg9
I140
sg10
g11
(S'\x07\xcb\x06\x1e\x00\x00\x00\x00\x00\x00'
p1425
tp1426
Rp1427
sa(dp1428
g2
VPG
p1429
sg4
VChris Columbus
p1430
sg6
VHome Alone 2: Lost in New York
p1431
sg8
I173585516
sg9
I120
sg10
g11
(S'\x07\xc8\x0b\x14\x00\x00\x00\x00\x00\x00'
p1432
tp1433
Rp1434
sa(dp1435
g2
VPG
p1436
sg4
VJon Favreau
p1437
sg6
VElf
p1438
sg8
I173398518
sg9
I95
sg10
g11
(S'\x07\xd3\x0b\x07\x00\x00\x00\x00\x00\x00'
p1439
tp1440
Rp1441
sa(dp1442
g2
VPG
p1443
sg4
VJon Turteltaub
p1444
sg6
VNational Treasure
p1445
sg8
I173008894
sg9
I131
sg10
g11
(S'\x07\xd4\x0b\x13\x00\x00\x00\x00\x00\x00'
p1446
tp1447
Rp1448
sa(dp1449
g2
VR
p1450
sg4
VWolfgang Petersen
p1451
sg6
VAir Force One
p1452
sg8
I172956409
sg9
I124
sg10
g11
(S'\x07\xcd\x07\x19\x00\x00\x00\x00\x00\x00'
p1453
tp1454
Rp1455
sa(dp1456
g2
VR
p1457
sg4
VBarry Levinson
p1458
sg6
VRain Man
p1459
sg8
I172825435
sg9
I133
sg10
g11
(S'\x07\xc4\x0c\x10\x00\x00\x00\x00\x00\x00'
p1460
tp1461
Rp1462
sa(dp1463
g2
VPG
p1464
sg4
VJoseph Kosinski
p1465
sg6
VTron Legacy
p1466
sg8
I172062763
sg9
I125
sg10
g11
(S'\x07\xda\x0c\x11\x00\x00\x00\x00\x00\x00'
p1467
tp1468
Rp1469
sa(dp1470
g2
VR
p1471
sg4
VAndy & Lana Wachowski
p1472
sg6
VThe Matrix
p1473
sg8
I171479930
sg9
I136
sg10
g11
(S'\x07\xcf\x03\x1f\x00\x00\x00\x00\x00\x00'
p1474
tp1475
Rp1476
sa(dp1477
g2
VPG-13
p1478
sg4
VEthan CoenJoel Coen
p1479
sg6
VTrue Grit
p1480
sg8
I171243005
sg9
I110
sg10
g11
(S'\x07\xda\x0c\x16\x00\x00\x00\x00\x00\x00'
p1481
tp1482
Rp1483
sa(dp1484
g2
VG
p1485
sg4
VChris Buck
p1486
sg6
VTarzan
p1487
sg8
I171091819
sg9
I88
sg10
g11
(S'\x07\xcf\x06\x10\x00\x00\x00\x00\x00\x00'
p1488
tp1489
Rp1490
sa(dp1491
g2
VPG-13
p1492
sg4
VRon Howard
p1493
sg6
VA Beautiful Mind
p1494
sg8
I170742341
sg9
I136
sg10
g11
(S'\x07\xd1\x0c\x15\x00\x00\x00\x00\x00\x00'
p1495
tp1496
Rp1497
sa(dp1498
g2
VPG-13
p1499
sg4
VRob Marshall
p1500
sg6
VChicago
p1501
sg8
I170687518
sg9
I107
sg10
g11
(S'\x07\xd2\x0c\x1b\x00\x00\x00\x00\x00\x00'
p1502
tp1503
Rp1504
sa(dp1505
g2
VPG-13
p1506
sg4
VTate Taylor
p1507
sg6
VThe Help
p1508
sg8
I169708112
sg9
I137
sg10
g11
(S'\x07\xdb\x08\n\x00\x00\x00\x00\x00\x00'
p1509
tp1510
Rp1511
sa(dp1512
g2
VR
p1513
sg4
VPaul Feig
p1514
sg6
VBridesmaids
p1515
sg8
I169106725
sg9
I125
sg10
g11
(S'\x07\xdb\x05\r\x00\x00\x00\x00\x00\x00'
p1516
tp1517
Rp1518
sa(dp1519
g2
VPG-13
p1520
sg4
VMarc Forster
p1521
sg6
VQuantum of Solace
p1522
sg8
I168368427
sg9
I106
sg10
g11
(S'\x07\xd8\x0b\x0e\x00\x00\x00\x00\x00\x00'
p1523
tp1524
Rp1525
sa(dp1526
g2
VPG-13
p1527
sg4
VWalter Becker
p1528
sg6
VWild Hogs
p1529
sg8
I168273550
sg9
I99
sg10
g11
(S'\x07\xd7\x03\x02\x00\x00\x00\x00\x00\x00'
p1530
tp1531
Rp1532
sa(dp1533
g2
VPG
p1534
sg4
Nsg6
VThree Men and a Baby
p1535
sg8
I167780960
sg9
I102
sg10
g11
(S'\x07\xc3\x0b\x19\x00\x00\x00\x00\x00\x00'
p1536
tp1537
Rp1538
sa(dp1539
g2
VPG-13
p1540
sg4
VMartin Campbell
p1541
sg6
VCasino Royale
p1542
sg8
I167445960
sg9
I144
sg10
g11
(S'\x07\xd6\x0b\x11\x00\x00\x00\x00\x00\x00'
p1543
tp1544
Rp1545
sa(dp1546
g2
VPG-13
p1547
sg4
VJay Roach
p1548
sg6
VMeet the Parents
p1549
sg8
I166244045
sg9
I108
sg10
g11
(S'\x07\xd0\n\x06\x00\x00\x00\x00\x00\x00'
p1550
tp1551
Rp1552
sa(dp1553
g2
VPG-13
p1554
sg4
VRoland Emmerich
p1555
sg6
V2012
p1556
sg8
I166112167
sg9
I158
sg10
g11
(S'\x07\xd9\x0b\r\x00\x00\x00\x00\x00\x00'
p1557
tp1558
Rp1559
sa(dp1560
g2
VPG-13
p1561
sg4
VKevin Reynolds
p1562
sg6
VRobin Hood: Prince of Thieves
p1563
sg8
I165493908
sg9
I143
sg10
g11
(S'\x07\xc7\x06\x0e\x00\x00\x00\x00\x00\x00'
p1564
tp1565
Rp1566
sa(dp1567
g2
VPG
p1568
sg4
VJennifer Yuh Nelson
p1569
sg6
VKung Fu Panda 2
p1570
sg8
I165249063
sg9
I91
sg10
g11
(S'\x07\xdb\x05\x1a\x00\x00\x00\x00\x00\x00'
p1571
tp1572
Rp1573
sa(dp1574
g2
VR
p1575
sg4
VRidley Scott
p1576
sg6
VHannibal
p1577
sg8
I165092268
sg9
I131
sg10
g11
(S'\x07\xd1\x02\t\x00\x00\x00\x00\x00\x00'
p1578
tp1579
Rp1580
sa(dp1581
g2
VPG-13
p1582
sg4
VSteven Spielberg
p1583
sg6
VCatch Me If You Can
p1584
sg8
I164615351
sg9
I140
sg10
g11
(S'\x07\xd2\x0c\x19\x00\x00\x00\x00\x00\x00'
p1585
tp1586
Rp1587
sa(dp1588
g2
VPG-13
p1589
sg4
VAnne Fletcher
p1590
sg6
VThe Proposal
p1591
sg8
I163958031
sg9
I108
sg10
g11
(S'\x07\xd9\x06\x13\x00\x00\x00\x00\x00\x00'
p1592
tp1593
Rp1594
sa(dp1595
g2
VPG-13
p1596
sg4
VGabriele Muccino
p1597
sg6
VThe Pursuit of Happyness
p1598
sg8
I163566459
sg9
I116
sg10
g11
(S'\x07\xd6\x0c\x0f\x00\x00\x00\x00\x00\x00'
p1599
tp1600
Rp1601
sa(dp1602
g2
VPG-13
p1603
sg4
VDennis Dugan
p1604
sg6
VBig Daddy
p1605
sg8
I163479795
sg9
I93
sg10
g11
(S'\x07\xcf\x06\x19\x00\x00\x00\x00\x00\x00'
p1606
tp1607
Rp1608
sa(dp1609
g2
VPG-13
p1610
sg4
VLouis Leterrier
p1611
sg6
VClash of the Titans
p1612
sg8
I163214888
sg9
I118
sg10
g11
(S'\x07\xda\x04\x02\x00\x00\x00\x00\x00\x00'
p1613
tp1614
Rp1615
sa(dp1616
g2
VPG-13
p1617
sg4
VTim Burton
p1618
sg6
VBatman Returns
p1619
sg8
I162831698
sg9
I126
sg10
g11
(S'\x07\xc8\x06\x13\x00\x00\x00\x00\x00\x00'
p1620
tp1621
Rp1622
sa(dp1623
g2
VR
p1624
sg4
VQuentin Tarantino
p1625
sg6
VDjango Unchained
p1626
sg8
I162805434
sg9
I165
sg10
g11
(S'\x07\xdc\x0c\x19\x00\x00\x00\x00\x00\x00'
p1627
tp1628
Rp1629
sa(dp1630
g2
VG
p1631
sg4
VJohn Lasseter
p1632
sg6
VA Bug's Life
p1633
sg8
I162798565
sg9
I96
sg10
g11
(S'\x07\xce\x0b\x14\x00\x00\x00\x00\x00\x00'
p1634
tp1635
Rp1636
sa(dp1637
g2
VPG-13
p1638
sg4
VDennis Dugan
p1639
sg6
VGrown Ups
p1640
sg8
I162001186
sg9
I102
sg10
g11
(S'\x07\xda\x06\x19\x00\x00\x00\x00\x00\x00'
p1641
tp1642
Rp1643
sa(dp1644
g2
VPG-13
p1645
sg4
VFrank Coraci
p1646
sg6
VThe Waterboy
p1647
sg8
I161491646
sg9
I90
sg10
g11
(S'\x07\xce\x0b\x06\x00\x00\x00\x00\x00\x00'
p1648
tp1649
Rp1650
sa(dp1651
g2
VPG
p1652
sg4
Nsg6
VIce Age: Continental Drift
p1653
sg8
I161321843
sg9
I94
sg10
g11
(S'\x07\xdc\x07\r\x00\x00\x00\x00\x00\x00'
p1654
tp1655
Rp1656
sa(dp1657
g2
VPG-13
p1658
sg4
VLee Tamahori
p1659
sg6
VDie Another Day
p1660
sg8
I160942139
sg9
I123
sg10
g11
(S'\x07\xd2\x0b\x16\x00\x00\x00\x00\x00\x00'
p1661
tp1662
Rp1663
sa(dp1664
g2
VPG
p1665
sg4
VRob Letterman
p1666
sg6
VShark Tale
p1667
sg8
I160861908
sg9
I90
sg10
g11
(S'\x07\xd4\n\x01\x00\x00\x00\x00\x00\x00'
p1668
tp1669
Rp1670
sa(dp1671
g2
VR
p1672
sg4
VPaul Feig
p1673
sg6
VThe Heat
p1674
sg8
I159582188
sg9
I117
sg10
g11
(S'\x07\xdd\x06\x1c\x00\x00\x00\x00\x00\x00'
p1675
tp1676
Rp1677
sa(dp1678
g2
VG
p1679
sg4
VRobert Wise
p1680
sg6
VThe Sound of Music
p1681
sg8
I158671368
sg9
I174
sg10
g11
(S'\x07\xad\x03\x02\x00\x00\x00\x00\x00\x00'
p1682
tp1683
Rp1684
sa(dp1685
g2
VR
p1686
sg4
VSydney Pollack
p1687
sg6
VThe Firm
p1688
sg8
I158348367
sg9
I154
sg10
g11
(S'\x07\xc9\x07\x02\x00\x00\x00\x00\x00\x00'
p1689
tp1690
Rp1691
sa(dp1692
g2
VPG-13
p1693
sg4
VPeter Segal
p1694
sg6
VThe Longest Yard
p1695
sg8
I158119460
sg9
I109
sg10
g11
(S'\x07\xd5\x05\x1b\x00\x00\x00\x00\x00\x00'
p1696
tp1697
Rp1698
sa(dp1699
g2
VPG-13
p1700
sg4
VBryan Singer
p1701
sg6
VX-Men
p1702
sg8
I157299717
sg9
I104
sg10
g11
(S'\x07\xd0\x07\x0e\x00\x00\x00\x00\x00\x00'
p1703
tp1704
Rp1705
sa(dp1706
g2
VR
p1707
sg4
VKeenen Ivory Wayans
p1708
sg6
VScary Movie
p1709
sg8
I157019771
sg9
I88
sg10
g11
(S'\x07\xd0\x07\x07\x00\x00\x00\x00\x00\x00'
p1710
tp1711
Rp1712
sa(dp1713
g2
VR
p1714
sg4
Nsg6
VFatal Attraction
p1715
sg8
I156645693
sg9
I123
sg10
g11
(S'\x07\xc3\t\x12\x00\x00\x00\x00\x00\x00'
p1716
tp1717
Rp1718
sa(dp1719
g2
VPG
p1720
sg4
VRobert Zemeckis
p1721
sg6
VWho Framed Roger Rabbit
p1722
sg8
I156452370
sg9
I103
sg10
g11
(S'\x07\xc4\x06\x18\x00\x00\x00\x00\x00\x00'
p1723
tp1724
Rp1725
sa(dp1726
g2
VPG
p1727
sg4
Nsg6
VThe Sting
p1728
sg8
I156000000
sg9
I129
sg10
g11
(S'\x07\xb5\x0c\x19\x00\x00\x00\x00\x00\x00'
p1729
tp1730
Rp1731
sa(dp1732
g2
VPG-13
p1733
sg4
VRobert Zemeckis
p1734
sg6
VWhat Lies Beneath
p1735
sg8
I155464351
sg9
I130
sg10
g11
(S'\x07\xd0\x07\x15\x00\x00\x00\x00\x00\x00'
p1736
tp1737
Rp1738
sa(dp1739
g2
VPG-13
p1740
sg4
VStephen Sommers
p1741
sg6
VThe Mummy
p1742
sg8
I155385488
sg9
I124
sg10
g11
(S'\x07\xcf\x05\x07\x00\x00\x00\x00\x00\x00'
p1743
tp1744
Rp1745
sa(dp1746
g2
VPG-13
p1747
sg4
VRupert Sanders
p1748
sg6
VSnow White and the Huntsman
p1749
sg8
I155332381
sg9
I127
sg10
g11
(S'\x07\xdc\x06\x01\x00\x00\x00\x00\x00\x00'
p1750
tp1751
Rp1752
sa(dp1753
g2
VPG-13
p1754
sg4
VJustin Lin
p1755
sg6
VFast and Furious
p1756
sg8
I155064265
sg9
I99
sg10
g11
(S'\x07\xd9\x04\x03\x00\x00\x00\x00\x00\x00'
p1757
tp1758
Rp1759
sa(dp1760
g2
VPG
p1761
sg4
Nsg6
VOver the Hedge
p1762
sg8
I155019340
sg9
I87
sg10
g11
(S'\x07\xd6\x05\x13\x00\x00\x00\x00\x00\x00'
p1763
tp1764
Rp1765
sa(dp1766
g2
VPG-13
p1767
sg4
VTim Story
p1768
sg6
VFantastic Four
p1769
sg8
I154696080
sg9
I123
sg10
g11
(S'\x07\xd5\x07\x08\x00\x00\x00\x00\x00\x00'
p1770
tp1771
Rp1772
sa(dp1773
g2
VG
p1774
sg4
VJimmy Hayward
p1775
sg6
VDr. Seuss' Horton Hears a Who!
p1776
sg8
I154529439
sg9
I88
sg10
g11
(S'\x07\xd8\x03\x0e\x00\x00\x00\x00\x00\x00'
p1777
tp1778
Rp1779
sa(dp1780
g2
VR
p1781
sg4
VCameron Crowe
p1782
sg6
VJerry Maguire
p1783
sg8
I153952592
sg9
I138
sg10
g11
(S'\x07\xcc\x0c\r\x00\x00\x00\x00\x00\x00'
p1784
tp1785
Rp1786
sa(dp1787
g2
VR
p1788
sg4
VTony Scott
p1789
sg6
VBeverly Hills Cop II
p1790
sg8
I153665036
sg9
I103
sg10
g11
(S'\x07\xc3\x05\x14\x00\x00\x00\x00\x00\x00'
p1791
tp1792
Rp1793
sa(dp1794
g2
VPG
p1795
sg4
VRaja Gosnell
p1796
sg6
VScooby-Doo
p1797
sg8
I153294164
sg9
I86
sg10
g11
(S'\x07\xd2\x06\x0e\x00\x00\x00\x00\x00\x00'
p1798
tp1799
Rp1800
sa(dp1801
g2
VPG
p1802
sg4
Nsg6
VGremlins
p1803
sg8
I153083102
sg9
I106
sg10
g11
(S'\x07\xc0\x06\x08\x00\x00\x00\x00\x00\x00'
p1804
tp1805
Rp1806
sa(dp1807
g2
VR
p1808
sg4
VMichael Patrick King
p1809
sg6
VSex and the City
p1810
sg8
I152647258
sg9
I135
sg10
g11
(S'\x07\xd8\x05\x1e\x00\x00\x00\x00\x00\x00'
p1811
tp1812
Rp1813
sa(dp1814
g2
VPG
p1815
sg4
VGarry Marshall
p1816
sg6
VRunaway Bride
p1817
sg8
I152257509
sg9
I116
sg10
g11
(S'\x07\xcf\x07\x1e\x00\x00\x00\x00\x00\x00'
p1818
tp1819
Rp1820
sa(dp1821
g2
VPG-13
p1822
sg4
VNeil Burger
p1823
sg6
VDivergent
p1824
sg8
I150947895
sg9
I143
sg10
g11
(S'\x07\xde\x03\x15\x00\x00\x00\x00\x00\x00'
p1825
tp1826
Rp1827
sa(dp1828
g2
VR
p1829
sg4
Nsg6
VRambo: First Blood Part II
p1830
sg8
I150415432
sg9
I94
sg10
g11
(S'\x07\xc1\x05\x16\x00\x00\x00\x00\x00\x00'
p1831
tp1832
Rp1833
sa(dp1834
g2
VR
p1835
sg4
VRawson Marshall Thurber
p1836
sg6
VWe're the Millers
p1837
sg8
I150394119
sg9
I110
sg10
g11
(S'\x07\xdd\x08\x07\x00\x00\x00\x00\x00\x00'
p1838
tp1839
Rp1840
sa(dp1841
g2
VR
p1842
sg4
Nsg6
VTerminator 3: Rise of the Machines
p1843
sg8
I150371112
sg9
I109
sg10
g11
(S'\x07\xd3\x07\x02\x00\x00\x00\x00\x00\x00'
p1844
tp1845
Rp1846
sa(dp1847
g2
VPG-13
p1848
sg4
VStephen Sommers
p1849
sg6
VG.I. Joe: The Rise of Cobra
p1850
sg8
I150201498
sg9
I118
sg10
g11
(S'\x07\xd9\x08\x07\x00\x00\x00\x00\x00\x00'
p1851
tp1852
Rp1853
sa(dp1854
g2
VR
p1855
sg4
VDavid O. Russell
p1856
sg6
VAmerican Hustle
p1857
sg8
I150117807
sg9
I138
sg10
g11
(S'\x07\xdd\x0c\r\x00\x00\x00\x00\x00\x00'
p1858
tp1859
Rp1860
sa(dp1861
g2
VR
p1862
sg4
VNick Stoller
p1863
sg6
VNeighbors
p1864
sg8
I150086800
sg9
I96
sg10
g11
(S'\x07\xde\x05\t\x00\x00\x00\x00\x00\x00'
p1865
tp1866
Rp1867
sa(dp1868
g2
VPG
p1869
sg4
VChris Miller
p1870
sg6
VPuss in Boots
p1871
sg8
I149260504
sg9
I90
sg10
g11
(S'\x07\xdb\n\x1c\x00\x00\x00\x00\x00\x00'
p1872
tp1873
Rp1874
sa(dp1875
g2
VPG-13
p1876
sg4
VTom Hooper
p1877
sg6
VLes Miserables
p1878
sg8
I148809770
sg9
I157
sg10
g11
(S'\x07\xdc\x0c\x19\x00\x00\x00\x00\x00\x00'
p1879
tp1880
Rp1881
sa(dp1882
g2
VR
p1883
sg4
VJudd Apatow
p1884
sg6
VKnocked Up
p1885
sg8
I148768917
sg9
I129
sg10
g11
(S'\x07\xd7\x06\x01\x00\x00\x00\x00\x00\x00'
p1886
tp1887
Rp1888
sa(dp1889
g2
VPG-13
p1890
sg4
VJames L. Brooks
p1891
sg6
VAs Good as It Gets
p1892
sg8
I148478011
sg9
I139
sg10
g11
(S'\x07\xcd\x0c\x17\x00\x00\x00\x00\x00\x00'
p1893
tp1894
Rp1895
sa(dp1896
g2
VPG-13
p1897
sg4
VPaul Weitz
p1898
sg6
VLittle Fockers
p1899
sg8
I148438600
sg9
I98
sg10
g11
(S'\x07\xda\x0c\x16\x00\x00\x00\x00\x00\x00'
p1900
tp1901
Rp1902
sa(dp1903
g2
VPG
p1904
sg4
VTom McGrath
p1905
sg6
VMegamind
p1906
sg8
I148415853
sg9
I96
sg10
g11
(S'\x07\xda\x0b\x05\x00\x00\x00\x00\x00\x00'
p1907
tp1908
Rp1909
sa(dp1910
g2
VPG
p1911
sg4
VGenndy Tartakovsky
p1912
sg6
VHotel Transylvania
p1913
sg8
I148313048
sg9
I91
sg10
g11
(S'\x07\xdc\t\x1c\x00\x00\x00\x00\x00\x00'
p1914
tp1915
Rp1916
sa(dp1917
g2
VPG-13
p1918
sg4
VAdam McKay
p1919
sg6
VTalladega Nights: The Ballad of Ricky Bobby
p1920
sg8
I148213377
sg9
I110
sg10
g11
(S'\x07\xd6\x08\x04\x00\x00\x00\x00\x00\x00'
p1921
tp1922
Rp1923
sa(dp1924
g2
VR
p1925
sg4
VClint Eastwood
p1926
sg6
VGran Torino
p1927
sg8
I148095302
sg9
I116
sg10
g11
(S'\x07\xd8\x0c\x0c\x00\x00\x00\x00\x00\x00'
p1928
tp1929
Rp1930
sa(dp1931
g2
VR
p1932
sg4
VRichard Donner
p1933
sg6
VLethal Weapon 2
p1934
sg8
I147253986
sg9
I113
sg10
g11
(S'\x07\xc5\x07\x07\x00\x00\x00\x00\x00\x00'
p1935
tp1936
Rp1937
sa(dp1938
g2
VPG-13
p1939
sg4
VMatthew Vaughn
p1940
sg6
VX-Men: First Class
p1941
sg8
I146408305
sg9
I131
sg10
g11
(S'\x07\xdb\x06\x03\x00\x00\x00\x00\x00\x00'
p1942
tp1943
Rp1944
sa(dp1945
g2
VPG
p1946
sg4
VSteve Carr
p1947
sg6
VPaul Blart: Mall Cop
p1948
sg8
I146336178
sg9
I87
sg10
g11
(S'\x07\xd9\x01\x10\x00\x00\x00\x00\x00\x00'
p1949
tp1950
Rp1951
sa(dp1952
g2
VR
p1953
sg4
VJames Cameron
p1954
sg6
VTrue Lies
p1955
sg8
I146282411
sg9
I144
sg10
g11
(S'\x07\xca\x07\x0f\x00\x00\x00\x00\x00\x00'
p1956
tp1957
Rp1958
sa(dp1959
g2
VPG
p1960
sg4
VDean DeBloisChris Sanders
p1961
sg6
VLilo & Stitch
p1962
sg8
I145794338
sg9
I85
sg10
g11
(S'\x07\xd2\x06\x15\x00\x00\x00\x00\x00\x00'
p1963
tp1964
Rp1965
sa(dp1966
g2
VR
p1967
sg4
Nsg6
VAmerican Pie 2
p1968
sg8
I145103595
sg9
I104
sg10
g11
(S'\x07\xd1\x08\n\x00\x00\x00\x00\x00\x00'
p1969
tp1970
Rp1971
sa(dp1972
g2
VPG-13
p1973
sg4
VPierre Morel
p1974
sg6
VTaken
p1975
sg8
I145000989
sg9
I93
sg10
g11
(S'\x07\xd9\x01\x1e\x00\x00\x00\x00\x00\x00'
p1976
tp1977
Rp1978
sa(dp1979
g2
VG
p1980
sg4
Nsg6
V101 Dalmatians
p1981
sg8
I144880014
sg9
I79
sg10
g11
(S'\x07\xa9\x01\x19\x00\x00\x00\x00\x00\x00'
p1982
tp1983
Rp1984
sa(dp1985
g2
VPG-13
p1986
sg4
VBaz Luhrmann
p1987
sg6
VThe Great Gatsby
p1988
sg8
I144840419
sg9
I143
sg10
g11
(S'\x07\xdd\x05\n\x00\x00\x00\x00\x00\x00'
p1989
tp1990
Rp1991
sa(dp1992
g2
VPG
p1993
sg4
Nsg6
VThe Santa Clause
p1994
sg8
I144833357
sg9
I97
sg10
g11
(S'\x07\xca\x0b\x0b\x00\x00\x00\x00\x00\x00'
p1995
tp1996
Rp1997
sa(dp1998
g2
VPG-13
p1999
sg4
VAlex Proyas
p2000
sg6
VI, Robot
p2001
sg8
I144801023
sg9
I105
sg10
g11
(S'\x07\xd4\x07\x10\x00\x00\x00\x00\x00\x00'
p2002
tp2003
Rp2004
sa(dp2005
g2
VR
p2006
sg4
VRichard Donner
p2007
sg6
VLethal Weapon 3
p2008
sg8
I144731527
sg9
I118
sg10
g11
(S'\x07\xc8\x05\x0f\x00\x00\x00\x00\x00\x00'
p2009
tp2010
Rp2011
sa(dp2012
g2
VPG-13
p2013
sg4
VRob Cohen
p2014
sg6
VThe Fast and the Furious
p2015
sg8
I144533925
sg9
I106
sg10
g11
(S'\x07\xd1\x06\x16\x00\x00\x00\x00\x00\x00'
p2016
tp2017
Rp2018
sa(dp2019
g2
VPG-13
p2020
sg4
VBetty Thomas
p2021
sg6
VDoctor Dolittle
p2022
sg8
I144156605
sg9
I85
sg10
g11
(S'\x07\xce\x06\x1a\x00\x00\x00\x00\x00\x00'
p2023
tp2024
Rp2025
sa(dp2026
g2
VPG-13
p2027
sg4
Nsg6
VMamma Mia!
p2028
sg8
I144130063
sg9
I108
sg10
g11
(S'\x07\xd8\x07\x12\x00\x00\x00\x00\x00\x00'
p2029
tp2030
Rp2031
sa(dp2032
g2
VG
p2033
sg4
VCarlos Saldanha
p2034
sg6
VRio
p2035
sg8
I143619809
sg9
I96
sg10
g11
(S'\x07\xdb\x04\x0f\x00\x00\x00\x00\x00\x00'
p2036
tp2037
Rp2038
sa(dp2039
g2
VPG-13
p2040
sg4
VJason Reitman
p2041
sg6
VJuno
p2042
sg8
I143495265
sg9
I91
sg10
g11
(S'\x07\xd7\x0c\x05\x00\x00\x00\x00\x00\x00'
p2043
tp2044
Rp2045
sa(dp2046
g2
VPG
p2047
sg4
VDavid Frankel
p2048
sg6
VMarley and Me
p2049
sg8
I143153751
sg9
I120
sg10
g11
(S'\x07\xd8\x0c\x19\x00\x00\x00\x00\x00\x00'
p2050
tp2051
Rp2052
sa(dp2053
g2
VPG
p2054
sg4
VRaja Gosnell
p2055
sg6
VThe Smurfs
p2056
sg8
I142614158
sg9
I86
sg10
g11
(S'\x07\xdb\x07\x1d\x00\x00\x00\x00\x00\x00'
p2057
tp2058
Rp2059
sa(dp2060
g2
VPG-13
p2061
sg4
VRob Cohen
p2062
sg6
VXXX
p2063
sg8
I142109382
sg9
I113
sg10
g11
(S'\x07\xd2\x08\t\x00\x00\x00\x00\x00\x00'
p2064
tp2065
Rp2066
sa(dp2067
g2
VG
p2068
sg4
Nsg6
VThe Jungle Book
p2069
sg8
I141843612
sg9
I78
sg10
g11
(S'\x07\xaf\n\x12\x00\x00\x00\x00\x00\x00'
p2070
tp2071
Rp2072
sa(dp2073
g2
VPG
p2074
sg4
VAndrew Adamson
p2075
sg6
VThe Chronicles of Narnia: Prince Caspian
p2076
sg8
I141621490
sg9
I140
sg10
g11
(S'\x07\xd8\x05\x10\x00\x00\x00\x00\x00\x00'
p2077
tp2078
Rp2079
sa(dp2080
g2
VR
p2081
sg4
VJohn Landis
p2082
sg6
VNational Lampoon's Animal House
p2083
sg8
I141600000
sg9
I109
sg10
g11
(S'\x07\xba\x07\x1c\x00\x00\x00\x00\x00\x00'
p2084
tp2085
Rp2086
sa(dp2087
g2
VG
p2088
sg4
Nsg6
VPocahontas
p2089
sg8
I141579773
sg9
I81
sg10
g11
(S'\x07\xcb\x06\x10\x00\x00\x00\x00\x00\x00'
p2090
tp2091
Rp2092
sa(dp2093
g2
VR
p2094
sg4
VRob Reiner
p2095
sg6
VA Few Good Men
p2096
sg8
I141340178
sg9
I138
sg10
g11
(S'\x07\xc8\x0c\x0b\x00\x00\x00\x00\x00\x00'
p2097
tp2098
Rp2099
sa(dp2100
g2
VR
p2101
sg4
VDanny Boyle
p2102
sg6
VSlumdog Millionaire
p2103
sg8
I141319928
sg9
I120
sg10
g11
(S'\x07\xd8\x0b\x0c\x00\x00\x00\x00\x00\x00'
p2104
tp2105
Rp2106
sa(dp2107
g2
VPG-13
p2108
sg4
VBrett Ratner
p2109
sg6
VRush Hour
p2110
sg8
I141186864
sg9
I97
sg10
g11
(S'\x07\xce\t\x12\x00\x00\x00\x00\x00\x00'
p2111
tp2112
Rp2113
sa(dp2114
g2
VR
p2115
sg4
Nsg6
VThe Blair Witch Project
p2116
sg8
I140539099
sg9
I86
sg10
g11
(S'\x07\xcf\x07\x10\x00\x00\x00\x00\x00\x00'
p2117
tp2118
Rp2119
sa(dp2120
g2
VPG-13
p2121
sg4
Nsg6
VDeep Impact
p2122
sg8
I140464664
sg9
I120
sg10
g11
(S'\x07\xce\x05\x08\x00\x00\x00\x00\x00\x00'
p2123
tp2124
Rp2125
sa(dp2126
g2
VPG-13
p2127
sg4
VBrett Ratner
p2128
sg6
VRush Hour 3
p2129
sg8
I140125968
sg9
I90
sg10
g11
(S'\x07\xd7\x08\n\x00\x00\x00\x00\x00\x00'
p2130
tp2131
Rp2132
sa(dp2133
g2
VPG-13
p2134
sg4
VAmy Heckerling
p2135
sg6
VLook Who's Talking
p2136
sg8
I140088813
sg9
I93
sg10
g11
(S'\x07\xc5\n\r\x00\x00\x00\x00\x00\x00'
p2137
tp2138
Rp2139
sa(dp2140
g2
VPG
p2141
sg4
VRob Minkoff
p2142
sg6
VStuart Little
p2143
sg8
I140035367
sg9
I84
sg10
g11
(S'\x07\xcf\x0c\x11\x00\x00\x00\x00\x00\x00'
p2144
tp2145
Rp2146
sa(dp2147
g2
VPG-13
p2148
sg4
VOlivier Megaton
p2149
sg6
VTaken 2
p2150
sg8
I139854287
sg9
I91
sg10
g11
(S'\x07\xdc\n\x05\x00\x00\x00\x00\x00\x00'
p2151
tp2152
Rp2153
sa(dp2154
g2
VPG
p2155
sg4
Nsg6
VSister Act
p2156
sg8
I139605150
sg9
I100
sg10
g11
(S'\x07\xc8\x05\x1d\x00\x00\x00\x00\x00\x00'
p2157
tp2158
Rp2159
sa(dp2160
g2
VR
p2161
sg4
VAndy & Lana Wachowski
p2162
sg6
VThe Matrix Revolutions
p2163
sg8
I139313948
sg9
I135
sg10
g11
(S'\x07\xd3\x0b\x05\x00\x00\x00\x00\x00\x00'
p2164
tp2165
Rp2166
sa(dp2167
g2
VG
p2168
sg4
VMichael Lembeck
p2169
sg6
VThe Santa Clause 2
p2170
sg8
I139236327
sg9
I105
sg10
g11
(S'\x07\xd2\x0b\x01\x00\x00\x00\x00\x00\x00'
p2171
tp2172
Rp2173
sa(dp2174
g2
VR
p2175
sg4
VTom Hooper
p2176
sg6
VThe King's Speech
p2177
sg8
I138797449
sg9
I118
sg10
g11
(S'\x07\xda\x0b\x1a\x00\x00\x00\x00\x00\x00'
p2178
tp2179
Rp2180
sa(dp2181
g2
VPG
p2182
sg4
VShawn Levy
p2183
sg6
VCheaper by the Dozen
p2184
sg8
I138614544
sg9
I98
sg10
g11
(S'\x07\xd3\x0c\x19\x00\x00\x00\x00\x00\x00'
p2185
tp2186
Rp2187
sa(dp2188
g2
VR
p2189
sg4
VMichael Bay
p2190
sg6
VBad Boys II
p2191
sg8
I138608444
sg9
I147
sg10
g11
(S'\x07\xd3\x07\x12\x00\x00\x00\x00\x00\x00'
p2192
tp2193
Rp2194
sa(dp2195
g2
VR
p2196
sg4
VOliver Stone
p2197
sg6
VPlatoon
p2198
sg8
I138530565
sg9
I120
sg10
g11
(S'\x07\xc2\x0c\x13\x00\x00\x00\x00\x00\x00'
p2199
tp2200
Rp2201
sa(dp2202
g2
VR
p2203
sg4
VPhil LordChris Miller (II)
p2204
sg6
V21 Jump Street
p2205
sg8
I138447667
sg9
I109
sg10
g11
(S'\x07\xdc\x03\x10\x00\x00\x00\x00\x00\x00'
p2206
tp2207
Rp2208
sa(dp2209
g2
VR
p2210
sg4
VGus Van Sant
p2211
sg6
VGood Will Hunting
p2212
sg8
I138433435
sg9
I126
sg10
g11
(S'\x07\xcd\x0c\x05\x00\x00\x00\x00\x00\x00'
p2213
tp2214
Rp2215
sa(dp2216
g2
VPG
p2217
sg4
VRobert Zemeckis
p2218
sg6
VA Christmas Carol
p2219
sg8
I137855863
sg9
I96
sg10
g11
(S'\x07\xd9\x0b\x06\x00\x00\x00\x00\x00\x00'
p2220
tp2221
Rp2222
sa(dp2223
g2
VPG
p2224
sg4
Nsg6
VDinosaur
p2225
sg8
I137748063
sg9
I82
sg10
g11
(S'\x07\xd0\x05\x13\x00\x00\x00\x00\x00\x00'
p2226
tp2227
Rp2228
sa(dp2229
g2
VR
p2230
sg4
VJames Wan
p2231
sg6
VThe Conjuring
p2232
sg8
I137400141
sg9
I112
sg10
g11
(S'\x07\xdd\x07\x13\x00\x00\x00\x00\x00\x00'
p2233
tp2234
Rp2235
sa(dp2236
g2
VPG-13
p2237
sg4
VFrank Coraci
p2238
sg6
VClick
p2239
sg8
I137355633
sg9
I97
sg10
g11
(S'\x07\xd6\x06\x17\x00\x00\x00\x00\x00\x00'
p2240
tp2241
Rp2242
sa(dp2243
g2
VR
p2244
sg4
VFrank Darabont
p2245
sg6
VThe Green Mile
p2246
sg8
I136801374
sg9
I188
sg10
g11
(S'\x07\xcf\x0c\n\x00\x00\x00\x00\x00\x00'
p2247
tp2248
Rp2249
sa(dp2250
g2
VR
p2251
sg4
VRon Howard
p2252
sg6
VRansom
p2253
sg8
I136492681
sg9
I121
sg10
g11
(S'\x07\xcc\x0b\x08\x00\x00\x00\x00\x00\x00'
p2254
tp2255
Rp2256
sa(dp2257
g2
VPG-13
p2258
sg4
VRoland Emmerich
p2259
sg6
VGodzilla
p2260
sg8
I136314294
sg9
I140
sg10
g11
(S'\x07\xce\x05\x14\x00\x00\x00\x00\x00\x00'
p2261
tp2262
Rp2263
sa(dp2264
g2
VG
p2265
sg4
Nsg6
V101 Dalmatians
p2266
sg8
I136189294
sg9
I103
sg10
g11
(S'\x07\xcc\x0b\x1b\x00\x00\x00\x00\x00\x00'
p2267
tp2268
Rp2269
sa(dp2270
g2
VR
p2271
sg4
VBen Affleck
p2272
sg6
VArgo
p2273
sg8
I136025503
sg9
I120
sg10
g11
(S'\x07\xdc\n\x0c\x00\x00\x00\x00\x00\x00'
p2274
tp2275
Rp2276
sa(dp2277
g2
VPG-13
p2278
sg4
VPeter Segal
p2279
sg6
VAnger Management
p2280
sg8
I135645823
sg9
I101
sg10
g11
(S'\x07\xd3\x04\x0b\x00\x00\x00\x00\x00\x00'
p2281
tp2282
Rp2283
sa(dp2284
g2
VG
p2285
sg4
Nsg6
VChicken Little
p2286
sg8
I135386665
sg9
I81
sg10
g11
(S'\x07\xd5\x0b\x04\x00\x00\x00\x00\x00\x00'
p2287
tp2288
Rp2289
sa(dp2290
g2
VPG
p2291
sg4
Nsg6
VTeenage Mutant Ninja Turtles
p2292
sg8
I135265915
sg9
I93
sg10
g11
(S'\x07\xc6\x03\x1e\x00\x00\x00\x00\x00\x00'
p2293
tp2294
Rp2295
sa(dp2296
g2
VPG-13
p2297
sg4
VTom Shadyac
p2298
sg6
VPatch Adams
p2299
sg8
I135026902
sg9
I115
sg10
g11
(S'\x07\xce\x0c\x19\x00\x00\x00\x00\x00\x00'
p2300
tp2301
Rp2302
sa(dp2303
g2
VR
p2304
sg4
Nsg6
VThe Godfather
p2305
sg8
I134966411
sg9
I175
sg10
g11
(S'\x07\xb4\x03\x0f\x00\x00\x00\x00\x00\x00'
p2306
tp2307
Rp2308
sa(dp2309
g2
VPG-13
p2310
sg4
VLouis Leterrier
p2311
sg6
VThe Incredible Hulk
p2312
sg8
I134806913
sg9
I114
sg10
g11
(S'\x07\xd8\x06\r\x00\x00\x00\x00\x00\x00'
p2313
tp2314
Rp2315
sa(dp2316
g2
VPG-13
p2317
sg4
VLen Wiseman
p2318
sg6
VLive Free or Die Hard
p2319
sg8
I134529403
sg9
I130
sg10
g11
(S'\x07\xd7\x06\x1b\x00\x00\x00\x00\x00\x00'
p2320
tp2321
Rp2322
sa(dp2323
g2
VR
p2324
sg4
VTimur Bekmambetov
p2325
sg6
VWanted
p2326
sg8
I134508551
sg9
I108
sg10
g11
(S'\x07\xd8\x06\x1b\x00\x00\x00\x00\x00\x00'
p2327
tp2328
Rp2329
sa(dp2330
g2
VR
p2331
sg4
VSeth Gordon
p2332
sg6
VIdentity Thief
p2333
sg8
I134506920
sg9
I111
sg10
g11
(S'\x07\xdd\x02\x08\x00\x00\x00\x00\x00\x00'
p2334
tp2335
Rp2336
sa(dp2337
g2
VPG
p2338
sg4
VRichard Donner
p2339
sg6
VSuperman
p2340
sg8
I134218018
sg9
I143
sg10
g11
(S'\x07\xba\x0c\x0f\x00\x00\x00\x00\x00\x00'
p2341
tp2342
Rp2343
sa(dp2344
g2
VPG-13
p2345
sg4
VTim Story
p2346
sg6
VRide Along
p2347
sg8
I134202565
sg9
I100
sg10
g11
(S'\x07\xde\x01\x11\x00\x00\x00\x00\x00\x00'
p2348
tp2349
Rp2350
sa(dp2351
g2
VR
p2352
sg4
VMichael Bay
p2353
sg6
VThe Rock
p2354
sg8
I134069511
sg9
I136
sg10
g11
(S'\x07\xcc\x06\x07\x00\x00\x00\x00\x00\x00'
p2355
tp2356
Rp2357
sa(dp2358
g2
VPG-13
p2359
sg4
VJ.J. Abrams
p2360
sg6
VMission: Impossible III
p2361
sg8
I134029801
sg9
I126
sg10
g11
(S'\x07\xd6\x05\x05\x00\x00\x00\x00\x00\x00'
p2362
tp2363
Rp2364
sa(dp2365
g2
VPG-13
p2366
sg4
VDennis Dugan
p2367
sg6
VGrown Ups 2
p2368
sg8
I133668525
sg9
I101
sg10
g11
(S'\x07\xdd\x07\x0c\x00\x00\x00\x00\x00\x00'
p2369
tp2370
Rp2371
sa(dp2372
g2
VR
p2373
sg4
VWolfgang Petersen
p2374
sg6
VTroy
p2375
sg8
I133378256
sg9
I163
sg10
g11
(S'\x07\xd4\x05\x0e\x00\x00\x00\x00\x00\x00'
p2376
tp2377
Rp2378
sa(dp2379
g2
VPG-13
p2380
sg4
VRon Howard
p2381
sg6
VAngels & Demons
p2382
sg8
I133375846
sg9
I140
sg10
g11
(S'\x07\xd9\x05\x0f\x00\x00\x00\x00\x00\x00'
p2383
tp2384
Rp2385
sa(dp2386
g2
VG
p2387
sg4
VMike Mitchell
p2388
sg6
VAlvin and the Chipmunks: Chipwrecked
p2389
sg8
I133110742
sg9
I87
sg10
g11
(S'\x07\xdb\x0c\x10\x00\x00\x00\x00\x00\x00'
p2390
tp2391
Rp2392
sa(dp2393
g2
VPG-13
p2394
sg4
VAdam Shankman
p2395
sg6
VBringing Down the House
p2396
sg8
I132716677
sg9
I105
sg10
g11
(S'\x07\xd3\x03\x07\x00\x00\x00\x00\x00\x00'
p2397
tp2398
Rp2399
sa(dp2400
g2
VPG-13
p2401
sg4
VJames Mangold
p2402
sg6
VThe Wolverine
p2403
sg8
I132556852
sg9
I126
sg10
g11
(S'\x07\xdd\x07\x1a\x00\x00\x00\x00\x00\x00'
p2404
tp2405
Rp2406
sa(dp2407
g2
VR
p2408
sg4
VMartin Scorsese
p2409
sg6
VThe Departed
p2410
sg8
I132384315
sg9
I150
sg10
g11
(S'\x07\xd6\n\x06\x00\x00\x00\x00\x00\x00'
p2411
tp2412
Rp2413
sa(dp2414
g2
VPG-13
p2415
sg4
VAng Lee
p2416
sg6
VHulk
p2417
sg8
I132177234
sg9
I135
sg10
g11
(S'\x07\xd3\x06\x14\x00\x00\x00\x00\x00\x00'
p2418
tp2419
Rp2420
sa(dp2421
g2
VR
p2422
sg4
VDavid O. Russell
p2423
sg6
VSilver Linings Playbook
p2424
sg8
I132092958
sg9
I122
sg10
g11
(S'\x07\xdc\x0b\x10\x00\x00\x00\x00\x00\x00'
p2425
tp2426
Rp2427
sa(dp2428
g2
VPG
p2429
sg4
VSteven Spielberg
p2430
sg6
VClose Encounters of the Third Kind
p2431
sg8
I132088635
sg9
I137
sg10
g11
(S'\x07\xb9\x0b\x10\x00\x00\x00\x00\x00\x00'
p2432
tp2433
Rp2434
sa(dp2435
g2
VPG-13
p2436
sg4
VSteven Spielberg
p2437
sg6
VMinority Report
p2438
sg8
I132072926
sg9
I144
sg10
g11
(S'\x07\xd2\x06\x15\x00\x00\x00\x00\x00\x00'
p2439
tp2440
Rp2441
sa(dp2442
g2
VPG
p2443
sg4
VTim Story
p2444
sg6
VFantastic Four: Rise of the Silver Surfer
p2445
sg8
I131921738
sg9
I89
sg10
g11
(S'\x07\xd7\x06\x0f\x00\x00\x00\x00\x00\x00'
p2446
tp2447
Rp2448
sa(dp2449
g2
VPG
p2450
sg4
VM. Night Shyamalan
p2451
sg6
VThe Last Airbender
p2452
sg8
I131772187
sg9
I103
sg10
g11
(S'\x07\xda\x07\x01\x00\x00\x00\x00\x00\x00'
p2453
tp2454
Rp2455
sa(dp2456
g2
VG
p2457
sg4
VCarlos Saldanha
p2458
sg6
VRio 2
p2459
sg8
I131538435
sg9
I101
sg10
g11
(S'\x07\xde\x04\x0b\x00\x00\x00\x00\x00\x00'
p2460
tp2461
Rp2462
sa(dp2463
g2
VPG-13
p2464
sg4
VSimon West
p2465
sg6
VLara Croft: Tomb Raider
p2466
sg8
I131168070
sg9
I100
sg10
g11
(S'\x07\xd1\x06\x0f\x00\x00\x00\x00\x00\x00'
p2467
tp2468
Rp2469
sa(dp2470
g2
VR
p2471
sg4
VJonathan Demme
p2472
sg6
VThe Silence of the Lambs
p2473
sg8
I130742922
sg9
I118
sg10
g11
(S'\x07\xc7\x02\x0e\x00\x00\x00\x00\x00\x00'
p2474
tp2475
Rp2476
sa(dp2477
g2
VPG
p2478
sg4
VJoe Johnston
p2479
sg6
VHoney, I Shrunk the Kids
p2480
sg8
I130724172
sg9
I101
sg10
g11
(S'\x07\xc5\x06\x17\x00\x00\x00\x00\x00\x00'
p2481
tp2482
Rp2483
sa(dp2484
g2
VPG
p2485
sg4
Nsg6
VThe Flintstones
p2486
sg8
I130531208
sg9
I91
sg10
g11
(S'\x07\xca\x05\x1b\x00\x00\x00\x00\x00\x00'
p2487
tp2488
Rp2489
sa(dp2490
g2
VR
p2491
sg4
VRichard Donner
p2492
sg6
VLethal Weapon 4
p2493
sg8
I130444603
sg9
I127
sg10
g11
(S'\x07\xce\x07\n\x00\x00\x00\x00\x00\x00'
p2494
tp2495
Rp2496
sa(dp2497
g2
VPG-13
p2498
sg4
VPeter Segal
p2499
sg6
VGet Smart
p2500
sg8
I130319208
sg9
I110
sg10
g11
(S'\x07\xd8\x06\x14\x00\x00\x00\x00\x00\x00'
p2501
tp2502
Rp2503
sa(dp2504
g2
VR
p2505
sg4
VRidley Scott
p2506
sg6
VAmerican Gangster
p2507
sg8
I130164645
sg9
I160
sg10
g11
(S'\x07\xd7\x0b\x02\x00\x00\x00\x00\x00\x00'
p2508
tp2509
Rp2510
sa(dp2511
g2
VR
p2512
sg4
VSam Mendes
p2513
sg6
VAmerican Beauty
p2514
sg8
I130096601
sg9
I122
sg10
g11
(S'\x07\xcf\t\x0f\x00\x00\x00\x00\x00\x00'
p2515
tp2516
Rp2517
sa(dp2518
g2
VR
p2519
sg4
VTaylor Hackford
p2520
sg6
VAn Officer and a Gentleman
p2521
sg8
I129795554
sg9
I122
sg10
g11
(S'\x07\xbe\x07\x1e\x00\x00\x00\x00\x00\x00'
p2522
tp2523
Rp2524
sa(dp2525
g2
VPG-13
p2526
sg4
VGore Verbinski
p2527
sg6
VThe Ring
p2528
sg8
I129128133
sg9
I109
sg10
g11
(S'\x07\xd2\n\x12\x00\x00\x00\x00\x00\x00'
p2529
tp2530
Rp2531
sa(dp2532
g2
VPG-13
p2533
sg4
VTom Shadyac
p2534
sg6
VThe Nutty Professor
p2535
sg8
I128814019
sg9
I103
sg10
g11
(S'\x07\xcc\x06\x1c\x00\x00\x00\x00\x00\x00'
p2536
tp2537
Rp2538
sa(dp2539
g2
VR
p2540
sg4
VLarry Charles
p2541
sg6
VBorat: Cultural Learnings of America for Make Benefit Glorious Nation of Kazakhstan
p2542
sg8
I128505958
sg9
I84
sg10
g11
(S'\x07\xd6\x0b\x03\x00\x00\x00\x00\x00\x00'
p2543
tp2544
Rp2545
sa(dp2546
g2
VPG
p2547
sg4
VCarlos Saldanha (co-director)Chris Wedge
p2548
sg6
VRobots
p2549
sg8
I128200012
sg9
I90
sg10
g11
(S'\x07\xd5\x03\x0b\x00\x00\x00\x00\x00\x00'
p2550
tp2551
Rp2552
sa(dp2553
g2
VR
p2554
sg4
VJohn Landis
p2555
sg6
VComing to America
p2556
sg8
I128152301
sg9
I116
sg10
g11
(S'\x07\xc4\x06\x1d\x00\x00\x00\x00\x00\x00'
p2557
tp2558
Rp2559
sa(dp2560
g2
VPG-13
p2561
sg4
VAng Lee
p2562
sg6
VCrouching Tiger, Hidden Dragon
p2563
sg8
I128078872
sg9
I120
sg10
g11
(S'\x07\xd0\x0c\x08\x00\x00\x00\x00\x00\x00'
p2564
tp2565
Rp2566
sa(dp2567
g2
VR
p2568
sg4
VMartin Scorsese
p2569
sg6
VShutter Island
p2570
sg8
I128012934
sg9
I138
sg10
g11
(S'\x07\xda\x02\x13\x00\x00\x00\x00\x00\x00'
p2571
tp2572
Rp2573
sa(dp2574
g2
VPG
p2575
sg4
VSylvester Stallone
p2576
sg6
VRocky IV
p2577
sg8
I127873716
sg9
I91
sg10
g11
(S'\x07\xc1\x0b\x1b\x00\x00\x00\x00\x00\x00'
p2578
tp2579
Rp2580
sa(dp2581
g2
VPG
p2582
sg4
Nsg6
VEnchanted
p2583
sg8
I127807262
sg9
I107
sg10
g11
(S'\x07\xd7\x0b\x15\x00\x00\x00\x00\x00\x00'
p2584
tp2585
Rp2586
sa(dp2587
g2
VPG-13
p2588
sg4
VDavid Fincher
p2589
sg6
VThe Curious Case of Benjamin Button
p2590
sg8
I127509326
sg9
I168
sg10
g11
(S'\x07\xd8\x0c\x19\x00\x00\x00\x00\x00\x00'
p2591
tp2592
Rp2593
sa(dp2594
g2
VPG-13
p2595
sg4
VAdam McKay
p2596
sg6
VAnchorman 2: The Legend Continues
p2597
sg8
I127352707
sg9
I119
sg10
g11
(S'\x07\xdd\x0c\x12\x00\x00\x00\x00\x00\x00'
p2598
tp2599
Rp2600
sa(dp2601
g2
VPG-13
p2602
sg4
VAndy Tennant
p2603
sg6
VSweet Home Alabama
p2604
sg8
I127223418
sg9
I102
sg10
g11
(S'\x07\xd2\t\x1b\x00\x00\x00\x00\x00\x00'
p2605
tp2606
Rp2607
sa(dp2608
g2
VPG-13
p2609
sg4
VThe Farrelly Bros.
p2610
sg6
VDumb and Dumber
p2611
sg8
I127175374
sg9
I101
sg10
g11
(S'\x07\xca\x0c\x10\x00\x00\x00\x00\x00\x00'
p2612
tp2613
Rp2614
sa(dp2615
g2
VPG-13
p2616
sg4
VJohn Singleton
p2617
sg6
V2 Fast 2 Furious
p2618
sg8
I127154901
sg9
I101
sg10
g11
(S'\x07\xd3\x06\x06\x00\x00\x00\x00\x00\x00'
p2619
tp2620
Rp2621
sa(dp2622
g2
VPG-13
p2623
sg4
VP.J. Hogan
p2624
sg6
VMy Best Friend's Wedding
p2625
sg8
I127120029
sg9
I105
sg10
g11
(S'\x07\xcd\x06\x14\x00\x00\x00\x00\x00\x00'
p2626
tp2627
Rp2628
sa(dp2629
g2
VPG-13
p2630
sg4
VJ.J. Abrams
p2631
sg6
VSuper 8
p2632
sg8
I127004179
sg9
I112
sg10
g11
(S'\x07\xdb\x06\n\x00\x00\x00\x00\x00\x00'
p2633
tp2634
Rp2635
sa(dp2636
g2
VPG-13
p2637
sg4
VMichael Apted
p2638
sg6
VThe World Is Not Enough
p2639
sg8
I126943684
sg9
I128
sg10
g11
(S'\x07\xcf\x0b\x13\x00\x00\x00\x00\x00\x00'
p2640
tp2641
Rp2642
sa(dp2643
g2
VPG
p2644
sg4
Nsg6
VSmokey and the Bandit
p2645
sg8
I126737428
sg9
I96
sg10
g11
(S'\x07\xb9\x05\x1b\x00\x00\x00\x00\x00\x00'
p2646
tp2647
Rp2648
sa(dp2649
g2
VPG
p2650
sg4
VNora Ephron
p2651
sg6
VSleepless in Seattle
p2652
sg8
I126680884
sg9
I105
sg10
g11
(S'\x07\xc9\x06\x19\x00\x00\x00\x00\x00\x00'
p2653
tp2654
Rp2655
sa(dp2656
g2
VPG
p2657
sg4
Nsg6
VBee Movie
p2658
sg8
I126631277
sg9
I90
sg10
g11
(S'\x07\xd7\x0b\x02\x00\x00\x00\x00\x00\x00'
p2659
tp2660
Rp2661
sa(dp2662
g2
VR
p2663
sg4
VRidley Scott
p2664
sg6
VPrometheus
p2665
sg8
I126477084
sg9
I124
sg10
g11
(S'\x07\xdc\x06\x08\x00\x00\x00\x00\x00\x00'
p2666
tp2667
Rp2668
sa(dp2669
g2
VR
p2670
sg4
VDaniel Espinosa
p2671
sg6
VSafe House
p2672
sg8
I126373434
sg9
I117
sg10
g11
(S'\x07\xdc\x02\n\x00\x00\x00\x00\x00\x00'
p2673
tp2674
Rp2675
sa(dp2676
g2
VPG-13
p2677
sg4
VSteven Brill
p2678
sg6
VMr. Deeds
p2679
sg8
I126293452
sg9
I91
sg10
g11
(S'\x07\xd2\x06\x1c\x00\x00\x00\x00\x00\x00'
p2680
tp2681
Rp2682
sa(dp2683
g2
VPG
p2684
sg4
VPeter Weir
p2685
sg6
VThe Truman Show
p2686
sg8
I125618201
sg9
I103
sg10
g11
(S'\x07\xce\x06\x05\x00\x00\x00\x00\x00\x00'
p2687
tp2688
Rp2689
sa(dp2690
g2
VR
p2691
sg4
VSteven Soderbergh
p2692
sg6
VErin Brockovich
p2693
sg8
I125595205
sg9
I130
sg10
g11
(S'\x07\xd0\x03\x11\x00\x00\x00\x00\x00\x00'
p2694
tp2695
Rp2696
sa(dp2697
g2
VPG-13
p2698
sg4
VSteven Soderbergh
p2699
sg6
VOcean's Twelve
p2700
sg8
I125544280
sg9
I124
sg10
g11
(S'\x07\xd4\x0c\n\x00\x00\x00\x00\x00\x00'
p2701
tp2702
Rp2703
sa(dp2704
g2
VPG-13
p2705
sg4
VMcG
p2706
sg6
VTerminator Salvation
p2707
sg8
I125322469
sg9
I114
sg10
g11
(S'\x07\xd9\x05\x15\x00\x00\x00\x00\x00\x00'
p2708
tp2709
Rp2710
sa(dp2711
g2
VPG-13
p2712
sg4
VMcG
p2713
sg6
VCharlie's Angels
p2714
sg8
I125305545
sg9
I98
sg10
g11
(S'\x07\xd0\x0b\x03\x00\x00\x00\x00\x00\x00'
p2715
tp2716
Rp2717
sa(dp2718
g2
VPG-13
p2719
sg4
Nsg6
VTomorrow Never Dies
p2720
sg8
I125304276
sg9
I119
sg10
g11
(S'\x07\xcd\x0c\x13\x00\x00\x00\x00\x00\x00'
p2721
tp2722
Rp2723
sa(dp2724
g2
VR
p2725
sg4
VPeter Berg
p2726
sg6
VLone Survivor
p2727
sg8
I125095601
sg9
I121
sg10
g11
(S'\x07\xdd\x0c\x19\x00\x00\x00\x00\x00\x00'
p2728
tp2729
Rp2730
sa(dp2731
g2
VPG
p2732
sg4
VSylvester Stallone
p2733
sg6
VRocky III
p2734
sg8
I125049125
sg9
I99
sg10
g11
(S'\x07\xbe\x05\x1c\x00\x00\x00\x00\x00\x00'
p2735
tp2736
Rp2737
sa(dp2738
g2
VPG-13
p2739
sg4
VMichael Sucsy
p2740
sg6
VThe Vow
p2741
sg8
I125014030
sg9
I104
sg10
g11
(S'\x07\xdc\x02\n\x00\x00\x00\x00\x00\x00'
p2742
tp2743
Rp2744
sa(dp2745
g2
VPG
p2746
sg4
VAng Lee
p2747
sg6
VLife of Pi
p2748
sg8
I124987023
sg9
I126
sg10
g11
(S'\x07\xdc\x0b\x15\x00\x00\x00\x00\x00\x00'
p2749
tp2750
Rp2751
sa(dp2752
g2
VPG
p2753
sg4
VPhil LordChris Miller (II)
p2754
sg6
VCloudy with a Chance of Meatballs
p2755
sg8
I124870275
sg9
I81
sg10
g11
(S'\x07\xd9\t\x12\x00\x00\x00\x00\x00\x00'
p2756
tp2757
Rp2758
sa(dp2759
g2
VPG-13
p2760
sg4
VDavid Frankel
p2761
sg6
VThe Devil Wears Prada
p2762
sg8
I124740460
sg9
I106
sg10
g11
(S'\x07\xd6\x06\x1e\x00\x00\x00\x00\x00\x00'
p2763
tp2764
Rp2765
sa(dp2766
g2
VPG-13
p2767
sg4
VNancy Meyers
p2768
sg6
VSomething's Gotta Give
p2769
sg8
I124728738
sg9
I128
sg10
g11
(S'\x07\xd3\x0c\x0c\x00\x00\x00\x00\x00\x00'
p2770
tp2771
Rp2772
sa(dp2773
g2
VPG-13
p2774
sg4
VJosh Boone
p2775
sg6
VThe Fault in our Stars
p2776
sg8
I124724651
sg9
I125
sg10
g11
(S'\x07\xde\x06\x06\x00\x00\x00\x00\x00\x00'
p2777
tp2778
Rp2779
sa(dp2780
g2
VR
p2781
sg4
VSteven Soderbergh
p2782
sg6
VTraffic
p2783
sg8
I124115725
sg9
I147
sg10
g11
(S'\x07\xd0\x0c\x1b\x00\x00\x00\x00\x00\x00'
p2784
tp2785
Rp2786
sa(dp2787
g2
VR
p2788
sg4
VMike Nichols
p2789
sg6
VThe Birdcage
p2790
sg8
I124060553
sg9
I117
sg10
g11
(S'\x07\xcc\x03\x08\x00\x00\x00\x00\x00\x00'
p2791
tp2792
Rp2793
sa(dp2794
g2
VPG-13
p2795
sg4
VRon Underwood
p2796
sg6
VCity Slickers
p2797
sg8
I124033791
sg9
I112
sg10
g11
(S'\x07\xc7\x06\x07\x00\x00\x00\x00\x00\x00'
p2798
tp2799
Rp2800
sa(dp2801
g2
VR
p2802
sg4
VBarry Levinson
p2803
sg6
VGood Morning, Vietnam
p2804
sg8
I123922370
sg9
I119
sg10
g11
(S'\x07\xc3\x0c\x19\x00\x00\x00\x00\x00\x00'
p2805
tp2806
Rp2807
sa(dp2808
g2
VPG
p2809
sg4
VGore Verbinski
p2810
sg6
VRango
p2811
sg8
I123477607
sg9
I107
sg10
g11
(S'\x07\xdb\x03\x04\x00\x00\x00\x00\x00\x00'
p2812
tp2813
Rp2814
sa(dp2815
g2
VPG-13
p2816
sg4
VPeter Segal
p2817
sg6
VThe Nutty Professor II: The Klumps
p2818
sg8
I123309890
sg9
I106
sg10
g11
(S'\x07\xd0\x07\x1c\x00\x00\x00\x00\x00\x00'
p2819
tp2820
Rp2821
sa(dp2822
g2
VPG-13
p2823
sg4
VJon Chu
p2824
sg6
VG.I. Joe: Retaliation
p2825
sg8
I122523060
sg9
I99
sg10
g11
(S'\x07\xdd\x03\x1c\x00\x00\x00\x00\x00\x00'
p2826
tp2827
Rp2828
sa(dp2829
g2
VPG-13
p2830
sg4
VPhillip Noyce
p2831
sg6
VClear and Present Danger
p2832
sg8
I122187717
sg9
I141
sg10
g11
(S'\x07\xca\x08\x05\x00\x00\x00\x00\x00\x00'
p2833
tp2834
Rp2835
sa(dp2836
g2
VPG
p2837
sg4
VJohn McTiernan
p2838
sg6
VThe Hunt for Red October
p2839
sg8
I122012643
sg9
I134
sg10
g11
(S'\x07\xc6\x03\x02\x00\x00\x00\x00\x00\x00'
p2840
tp2841
Rp2842
sa(dp2843
g2
VR
p2844
sg4
Nsg6
VThe Bodyguard
p2845
sg8
I122006740
sg9
I130
sg10
g11
(S'\x07\xc8\x0b\x19\x00\x00\x00\x00\x00\x00'
p2846
tp2847
Rp2848
sa(dp2849
g2
VPG-13
p2850
sg4
VPenelope Spheeris
p2851
sg6
VWayne's World
p2852
sg8
I121697323
sg9
I95
sg10
g11
(S'\x07\xc8\x02\x0e\x00\x00\x00\x00\x00\x00'
p2853
tp2854
Rp2855
sa(dp2856
g2
VPG-13
p2857
sg4
VDoug Liman
p2858
sg6
VThe Bourne Identity
p2859
sg8
I121661683
sg9
I118
sg10
g11
(S'\x07\xd2\x06\x0e\x00\x00\x00\x00\x00\x00'
p2860
tp2861
Rp2862
sa(dp2863
g2
VR
p2864
sg4
VGreg Mottola
p2865
sg6
VSuperbad
p2866
sg8
I121463226
sg9
I114
sg10
g11
(S'\x07\xd7\x08\x11\x00\x00\x00\x00\x00\x00'
p2867
tp2868
Rp2869
sa(dp2870
g2
VR
p2871
sg4
VJan DeBont
p2872
sg6
VSpeed
p2873
sg8
I121248145
sg9
I116
sg10
g11
(S'\x07\xca\x06\n\x00\x00\x00\x00\x00\x00'
p2874
tp2875
Rp2876
sa(dp2877
g2
VR
p2878
sg4
VLuc Besson
p2879
sg6
VLucy
p2880
sg8
I121212955
sg9
I90
sg10
g11
(S'\x07\xde\x07\x19\x00\x00\x00\x00\x00\x00'
p2881
tp2882
Rp2883
sa(dp2884
g2
VPG-13
p2885
sg4
VPeter Segal
p2886
sg6
V50 First Dates
p2887
sg8
I120908074
sg9
I96
sg10
g11
(S'\x07\xd4\x02\r\x00\x00\x00\x00\x00\x00'
p2888
tp2889
Rp2890
sa(dp2891
g2
VG
p2892
sg4
VBarry Cook
p2893
sg6
VMulan
p2894
sg8
I120620254
sg9
I88
sg10
g11
(S'\x07\xce\x06\x13\x00\x00\x00\x00\x00\x00'
p2895
tp2896
Rp2897
sa(dp2898
g2
VR
p2899
sg4
VQuentin Tarantino
p2900
sg6
VInglourious Basterds
p2901
sg8
I120540719
sg9
I152
sg10
g11
(S'\x07\xd9\x08\x15\x00\x00\x00\x00\x00\x00'
p2902
tp2903
Rp2904
sa(dp2905
g2
VPG-13
p2906
sg4
VGary Ross
p2907
sg6
VSeabiscuit
p2908
sg8
I120277854
sg9
I129
sg10
g11
(S'\x07\xd3\x07\x19\x00\x00\x00\x00\x00\x00'
p2909
tp2910
Rp2911
sa(dp2912
g2
VPG-13
p2913
sg4
VStephen Sommers
p2914
sg6
VVan Helsing
p2915
sg8
I120177084
sg9
I130
sg10
g11
(S'\x07\xd4\x05\x07\x00\x00\x00\x00\x00\x00'
p2916
tp2917
Rp2918
sa(dp2919
g2
VPG-13
p2920
sg4
VSeth Gordon
p2921
sg6
VFour Christmases
p2922
sg8
I120146040
sg9
I82
sg10
g11
(S'\x07\xd8\x0b\x1a\x00\x00\x00\x00\x00\x00'
p2923
tp2924
Rp2925
sa(dp2926
g2
VPG-13
p2927
sg4
VDennis Dugan
p2928
sg6
VI Now Pronounce You Chuck and Larry
p2929
sg8
I120059556
sg9
I110
sg10
g11
(S'\x07\xd7\x07\x14\x00\x00\x00\x00\x00\x00'
p2930
tp2931
Rp2932
sa(dp2933
g2
VPG-13
p2934
sg4
Nsg6
VThe Mask
p2935
sg8
I119938730
sg9
I97
sg10
g11
(S'\x07\xca\x07\x1d\x00\x00\x00\x00\x00\x00'
p2936
tp2937
Rp2938
sa(dp2939
g2
VPG
p2940
sg4
Nsg6
VCloudy with a Chance of Meatballs 2
p2941
sg8
I119793567
sg9
I95
sg10
g11
(S'\x07\xdd\t\x1b\x00\x00\x00\x00\x00\x00'
p2942
tp2943
Rp2944
sa(dp2945
g2
VPG
p2946
sg4
VSteven Spielberg
p2947
sg6
VHook
p2948
sg8
I119654823
sg9
I142
sg10
g11
(S'\x07\xc7\x0c\x0b\x00\x00\x00\x00\x00\x00'
p2949
tp2950
Rp2951
sa(dp2952
g2
VR
p2953
sg4
VMel Brooks
p2954
sg6
VBlazing Saddles
p2955
sg8
I119601481
sg9
I93
sg10
g11
(S'\x07\xb6\x02\x07\x00\x00\x00\x00\x00\x00'
p2956
tp2957
Rp2958
sa(dp2959
g2
VPG-13
p2960
sg4
VJames Mangold
p2961
sg6
VWalk the Line
p2962
sg8
I119519402
sg9
I135
sg10
g11
(S'\x07\xd5\x0b\x12\x00\x00\x00\x00\x00\x00'
p2963
tp2964
Rp2965
sa(dp2966
g2
VPG
p2967
sg4
Nsg6
VG-Force
p2968
sg8
I119436770
sg9
I90
sg10
g11
(S'\x07\xd9\x07\x18\x00\x00\x00\x00\x00\x00'
p2969
tp2970
Rp2971
sa(dp2972
g2
VR
p2973
sg4
VPaul Verhoeven
p2974
sg6
VTotal Recall
p2975
sg8
I119412921
sg9
I113
sg10
g11
(S'\x07\xc6\x06\x01\x00\x00\x00\x00\x00\x00'
p2976
tp2977
Rp2978
sa(dp2979
g2
VPG
p2980
sg4
VMark Rydell
p2981
sg6
VOn Golden Pond
p2982
sg8
I119285432
sg9
I109
sg10
g11
(S'\x07\xbd\x0c\x04\x00\x00\x00\x00\x00\x00'
p2983
tp2984
Rp2985
sa(dp2986
g2
VPG-13
p2987
sg4
VAdam McKay
p2988
sg6
VThe Other Guys
p2989
sg8
I119219978
sg9
I107
sg10
g11
(S'\x07\xda\x08\x06\x00\x00\x00\x00\x00\x00'
p2990
tp2991
Rp2992
sa(dp2993
g2
VR
p2994
sg4
VMichael Moore
p2995
sg6
VFahrenheit 9/11
p2996
sg8
I119194771
sg9
I116
sg10
g11
(S'\x07\xd4\x06\x17\x00\x00\x00\x00\x00\x00'
p2997
tp2998
Rp2999
sa(dp3000
g2
VPG-13
p3001
sg4
Nsg6
VThe Sum of All Fears
p3002
sg8
I118907036
sg9
I118
sg10
g11
(S'\x07\xd2\x05\x1f\x00\x00\x00\x00\x00\x00'
p3003
tp3004
Rp3005
sa(dp3006
g2
VPG
p3007
sg4
VAdam Shankman
p3008
sg6
VHairspray
p3009
sg8
I118871849
sg9
I107
sg10
g11
(S'\x07\xd7\x07\x14\x00\x00\x00\x00\x00\x00'
p3010
tp3011
Rp3012
sa(dp3013
g2
VPG-13
p3014
sg4
VPeyton Reed
p3015
sg6
VThe Break-Up
p3016
sg8
I118703275
sg9
I106
sg10
g11
(S'\x07\xd6\x06\x02\x00\x00\x00\x00\x00\x00'
p3017
tp3018
Rp3019
sa(dp3020
g2
VPG
p3021
sg4
VBrad Silberling
p3022
sg6
VLemony Snicket's A Series of Unfortunate Events
p3023
sg8
I118634549
sg9
I113
sg10
g11
(S'\x07\xd4\x0c\x11\x00\x00\x00\x00\x00\x00'
p3024
tp3025
Rp3026
sa(dp3027
g2
VPG-13
p3028
sg4
VJosh GordonWill Speck
p3029
sg6
VBlades of Glory
p3030
sg8
I118594548
sg9
I93
sg10
g11
(S'\x07\xd7\x03\x1e\x00\x00\x00\x00\x00\x00'
p3031
tp3032
Rp3033
sa(dp3034
g2
VPG
p3035
sg4
VRobert Zemeckis
p3036
sg6
VBack to the Future Part II
p3037
sg8
I118450002
sg9
I108
sg10
g11
(S'\x07\xc5\x0b\x16\x00\x00\x00\x00\x00\x00'
p3038
tp3039
Rp3040
sa(dp3041
g2
VPG-13
p3042
sg4
VPhillip Noyce
p3043
sg6
VSalt
p3044
sg8
I118311368
sg9
I99
sg10
g11
(S'\x07\xda\x07\x17\x00\x00\x00\x00\x00\x00'
p3045
tp3046
Rp3047
sa(dp3048
g2
VR
p3049
sg4
VPaul Verhoeven
p3050
sg6
VBasic Instinct
p3051
sg8
I117727224
sg9
I123
sg10
g11
(S'\x07\xc8\x03\x14\x00\x00\x00\x00\x00\x00'
p3052
tp3053
Rp3054
sa(dp3055
g2
VPG-13
p3056
sg4
VLouis Leterrier
p3057
sg6
VNow You See Me
p3058
sg8
I117723989
sg9
I116
sg10
g11
(S'\x07\xdd\x05\x1f\x00\x00\x00\x00\x00\x00'
p3059
tp3060
Rp3061
sa(dp3062
g2
VPG-13
p3063
sg4
VRaja Gosnell
p3064
sg6
VBig Momma's House
p3065
sg8
I117559438
sg9
I98
sg10
g11
(S'\x07\xd0\x06\x02\x00\x00\x00\x00\x00\x00'
p3066
tp3067
Rp3068
sa(dp3069
g2
VR
p3070
sg4
VRenny Harlin
p3071
sg6
VDie Hard 2: Die Harder
p3072
sg8
I117540947
sg9
I124
sg10
g11
(S'\x07\xc6\x07\x06\x00\x00\x00\x00\x00\x00'
p3073
tp3074
Rp3075
sa(dp3076
g2
VR
p3077
sg4
VSeth Gordon
p3078
sg6
VHorrible Bosses
p3079
sg8
I117538559
sg9
I100
sg10
g11
(S'\x07\xdb\x07\x08\x00\x00\x00\x00\x00\x00'
p3080
tp3081
Rp3082
sa(dp3083
g2
VPG
p3084
sg4
Nsg6
VRocky
p3085
sg8
I117235147
sg9
I119
sg10
g11
(S'\x07\xb8\x0b\x15\x00\x00\x00\x00\x00\x00'
p3086
tp3087
Rp3088
sa(dp3089
g2
VR
p3090
sg4
VJeff Tremaine
p3091
sg6
VJackass 3-D
p3092
sg8
I117229692
sg9
I94
sg10
g11
(S'\x07\xda\n\x0f\x00\x00\x00\x00\x00\x00'
p3093
tp3094
Rp3095
sa(dp3096
g2
VPG-13
p3097
sg4
VSteven Soderbergh
p3098
sg6
VOcean's Thirteen
p3099
sg8
I117154724
sg9
I113
sg10
g11
(S'\x07\xd7\x06\x08\x00\x00\x00\x00\x00\x00'
p3100
tp3101
Rp3102
sa(dp3103
g2
VPG-13
p3104
sg4
VClark Johnson
p3105
sg6
VS.W.A.T.
p3106
sg8
I116934650
sg9
I111
sg10
g11
(S'\x07\xd3\x08\x08\x00\x00\x00\x00\x00\x00'
p3107
tp3108
Rp3109
sa(dp3110
g2
VR
p3111
sg4
VMartin Scorsese
p3112
sg6
VThe Wolf of Wall Street
p3113
sg8
I116900694
sg9
I180
sg10
g11
(S'\x07\xdd\x0c\x19\x00\x00\x00\x00\x00\x00'
p3114
tp3115
Rp3116
sa(dp3117
g2
VR
p3118
sg4
VCurtis Hanson
p3119
sg6
V8 Mile
p3120
sg8
I116750901
sg9
I118
sg10
g11
(S'\x07\xd2\x0b\x08\x00\x00\x00\x00\x00\x00'
p3121
tp3122
Rp3123
sa(dp3124
g2
VR
p3125
sg4
Nsg6
VDouble Jeopardy
p3126
sg8
I116741558
sg9
I105
sg10
g11
(S'\x07\xcf\t\x18\x00\x00\x00\x00\x00\x00'
p3127
tp3128
Rp3129
sa(dp3130
g2
VPG-13
p3131
sg4
VLee Daniels
p3132
sg6
VLee Daniels' The Butler
p3133
sg8
I116632095
sg9
I132
sg10
g11
(S'\x07\xdd\x08\x10\x00\x00\x00\x00\x00\x00'
p3134
tp3135
Rp3136
sa(dp3137
g2
VPG-13
p3138
sg4
VMartin Campbell
p3139
sg6
VGreen Lantern
p3140
sg8
I116601172
sg9
I105
sg10
g11
(S'\x07\xdb\x06\x11\x00\x00\x00\x00\x00\x00'
p3141
tp3142
Rp3143
sa(dp3144
g2
VPG-13
p3145
sg4
Nsg6
VNotting Hill
p3146
sg8
I116089678
sg9
I124
sg10
g11
(S'\x07\xcf\x05\x1c\x00\x00\x00\x00\x00\x00'
p3147
tp3148
Rp3149
sa(dp3150
g2
VPG
p3151
sg4
Nsg6
VThe Towering Inferno
p3152
sg8
I116000000
sg9
I165
sg10
g11
(S'\x07\xb6\x0c\x0e\x00\x00\x00\x00\x00\x00'
p3153
tp3154
Rp3155
sa(dp3156
g2
VPG
p3157
sg4
VNora Ephron
p3158
sg6
VYou've Got Mail
p3159
sg8
I115821495
sg9
I119
sg10
g11
(S'\x07\xce\x0c\x12\x00\x00\x00\x00\x00\x00'
p3160
tp3161
Rp3162
sa(dp3163
g2
VPG-13
p3164
sg4
VMark Steven Johnson
p3165
sg6
VGhost Rider
p3166
sg8
I115802596
sg9
I110
sg10
g11
(S'\x07\xd7\x02\x10\x00\x00\x00\x00\x00\x00'
p3167
tp3168
Rp3169
sa(dp3170
g2
VPG
p3171
sg4
VBoaz Yakin
p3172
sg6
VRemember the Titans
p3173
sg8
I115654751
sg9
I113
sg10
g11
(S'\x07\xd0\t\x1d\x00\x00\x00\x00\x00\x00'
p3174
tp3175
Rp3176
sa(dp3177
g2
VR
p3178
sg4
VNeill Blomkamp
p3179
sg6
VDistrict 9
p3180
sg8
I115646235
sg9
I113
sg10
g11
(S'\x07\xd9\x08\x0e\x00\x00\x00\x00\x00\x00'
p3181
tp3182
Rp3183
sa(dp3184
g2
VPG
p3185
sg4
Nsg6
VThe Karate Kid Part II
p3186
sg8
I115103979
sg9
I113
sg10
g11
(S'\x07\xc2\x06\x14\x00\x00\x00\x00\x00\x00'
p3187
tp3188
Rp3189
sa(dp3190
g2
VPG
p3191
sg4
VGeorge Lucas
p3192
sg6
VAmerican Graffiti
p3193
sg8
I115000000
sg9
I110
sg10
g11
(S'\x07\xb5\x08\x01\x00\x00\x00\x00\x00\x00'
p3194
tp3195
Rp3196
sa(dp3197
g2
VPG
p3198
sg4
VPenny Marshall
p3199
sg6
VBig
p3200
sg8
I114968774
sg9
I104
sg10
g11
(S'\x07\xc4\x06\x03\x00\x00\x00\x00\x00\x00'
p3201
tp3202
Rp3203
sa(dp3204
g2
VPG-13
p3205
sg4
VRawson Marshall Thurber
p3206
sg6
VDodgeBall: A True Underdog Story
p3207
sg8
I114326736
sg9
I97
sg10
g11
(S'\x07\xd4\x06\x12\x00\x00\x00\x00\x00\x00'
p3208
tp3209
Rp3210
sa(dp3211
g2
VPG-13
p3212
sg4
VM. Night Shyamalan
p3213
sg6
VThe Village
p3214
sg8
I114197520
sg9
I108
sg10
g11
(S'\x07\xd4\x07\x1e\x00\x00\x00\x00\x00\x00'
p3215
tp3216
Rp3217
sa(dp3218
g2
VPG
p3219
sg4
Nsg6
VBolt
p3220
sg8
I114053579
sg9
I96
sg10
g11
(S'\x07\xd8\x0b\x15\x00\x00\x00\x00\x00\x00'
p3221
tp3222
Rp3223
sa(dp3224
g2
VPG-13
p3225
sg4
VBarry Sonnenfeld
p3226
sg6
VWild Wild West
p3227
sg8
I113804681
sg9
I107
sg10
g11
(S'\x07\xcf\x06\x1e\x00\x00\x00\x00\x00\x00'
p3228
tp3229
Rp3230
sa(dp3231
g2
VR
p3232
sg4
VSteven Soderbergh
p3233
sg6
VMagic Mike
p3234
sg8
I113721571
sg9
I110
sg10
g11
(S'\x07\xdc\x06\x1d\x00\x00\x00\x00\x00\x00'
p3235
tp3236
Rp3237
sa(dp3238
g2
VPG-13
p3239
sg4
VBarry Sonnenfeld
p3240
sg6
VThe Addams Family
p3241
sg8
I113502426
sg9
I102
sg10
g11
(S'\x07\xc7\x0b\x16\x00\x00\x00\x00\x00\x00'
p3242
tp3243
Rp3244
sa(dp3245
g2
VR
p3246
sg4
VRoland Emmerich
p3247
sg6
VThe Patriot
p3248
sg8
I113330342
sg9
I164
sg10
g11
(S'\x07\xd0\x06\x1c\x00\x00\x00\x00\x00\x00'
p3249
tp3250
Rp3251
sa(dp3252
g2
VPG-13
p3253
sg4
VTony Gilroy
p3254
sg6
VThe Bourne Legacy
p3255
sg8
I113203870
sg9
I135
sg10
g11
(S'\x07\xdc\x08\n\x00\x00\x00\x00\x00\x00'
p3256
tp3257
Rp3258
sa(dp3259
g2
VPG
p3260
sg4
VAdam Shankman
p3261
sg6
VThe Pacifier
p3262
sg8
I113086868
sg9
I91
sg10
g11
(S'\x07\xd5\x03\x04\x00\x00\x00\x00\x00\x00'
p3263
tp3264
Rp3265
sa(dp3266
g2
VPG
p3267
sg4
VSteve Carr
p3268
sg6
VDr. Dolittle 2
p3269
sg8
I112952899
sg9
I87
sg10
g11
(S'\x07\xd1\x06\x16\x00\x00\x00\x00\x00\x00'
p3270
tp3271
Rp3272
sa(dp3273
g2
VR
p3274
sg4
Nsg6
VThe Rocky Horror Picture Show
p3275
sg8
I112892319
sg9
I100
sg10
g11
(S'\x07\xb7\t\x1a\x00\x00\x00\x00\x00\x00'
p3276
tp3277
Rp3278
sa(dp3279
g2
VR
p3280
sg4
VNancy Meyers
p3281
sg6
VIt's Complicated
p3282
sg8
I112735375
sg9
I118
sg10
g11
(S'\x07\xd9\x0c\x19\x00\x00\x00\x00\x00\x00'
p3283
tp3284
Rp3285
sa(dp3286
g2
VPG
p3287
sg4
VRobert Rodriguez
p3288
sg6
VSpy Kids
p3289
sg8
I112719001
sg9
I88
sg10
g11
(S'\x07\xd1\x03\x1e\x00\x00\x00\x00\x00\x00'
p3290
tp3291
Rp3292
sa(dp3293
g2
VPG
p3294
sg4
VIvan Reitman
p3295
sg6
VGhostbusters II
p3296
sg8
I112494738
sg9
I102
sg10
g11
(S'\x07\xc5\x06\x10\x00\x00\x00\x00\x00\x00'
p3297
tp3298
Rp3299
sa(dp3300
g2
VR
p3301
sg4
VJohn Woo
p3302
sg6
VFace/Off
p3303
sg8
I112276146
sg9
I138
sg10
g11
(S'\x07\xcd\x06\x1b\x00\x00\x00\x00\x00\x00'
p3304
tp3305
Rp3306
sa(dp3307
g2
VR
p3308
sg4
VTodd Phillips
p3309
sg6
VThe Hangover Part III
p3310
sg8
I112200072
sg9
I100
sg10
g11
(S'\x07\xdd\x05\x17\x00\x00\x00\x00\x00\x00'
p3311
tp3312
Rp3313
sa(dp3314
g2
VPG
p3315
sg4
VIvan Reitman
p3316
sg6
VTwins
p3317
sg8
I111938388
sg9
I105
sg10
g11
(S'\x07\xc4\x0c\t\x00\x00\x00\x00\x00\x00'
p3318
tp3319
Rp3320
sa(dp3321
g2
VPG
p3322
sg4
VRobert Rodriguez
p3323
sg6
VSpy Kids 3D: Game Over
p3324
sg8
I111761982
sg9
I85
sg10
g11
(S'\x07\xd3\x07\x19\x00\x00\x00\x00\x00\x00'
p3325
tp3326
Rp3327
sa(dp3328
g2
VGP
p3329
sg4
Nsg6
VDoctor Zhivago
p3330
sg8
I111721910
sg9
I197
sg10
g11
(S'\x07\xad\x0c\x16\x00\x00\x00\x00\x00\x00'
p3331
tp3332
Rp3333
sa(dp3334
g2
VR
p3335
sg4
VTony Scott
p3336
sg6
VEnemy of the State
p3337
sg8
I111549836
sg9
I131
sg10
g11
(S'\x07\xce\x0b\x14\x00\x00\x00\x00\x00\x00'
p3338
tp3339
Rp3340
sa(dp3341
g2
VG
p3342
sg4
Nsg6
VThe Little Mermaid
p3343
sg8
I111543479
sg9
I83
sg10
g11
(S'\x07\xc5\x0b\x11\x00\x00\x00\x00\x00\x00'
p3344
tp3345
Rp3346
sa(dp3347
g2
VPG
p3348
sg4
VRob Minkoff
p3349
sg6
VMr. Peabody & Sherman
p3350
sg8
I111506430
sg9
I90
sg10
g11
(S'\x07\xde\x03\x07\x00\x00\x00\x00\x00\x00'
p3351
tp3352
Rp3353
sa(dp3354
g2
VR
p3355
sg4
Nsg6
VPorky's
p3356
sg8
I111289673
sg9
I94
sg10
g11
(S'\x07\xbe\x03\x13\x00\x00\x00\x00\x00\x00'
p3357
tp3358
Rp3359
sa(dp3360
g2
VR
p3361
sg4
VEdward Zwick
p3362
sg6
VThe Last Samurai
p3363
sg8
I111127263
sg9
I154
sg10
g11
(S'\x07\xd3\x0c\x05\x00\x00\x00\x00\x00\x00'
p3364
tp3365
Rp3366
sa(dp3367
g2
VR
p3368
sg4
VBen Stiller
p3369
sg6
VTropic Thunder
p3370
sg8
I110515313
sg9
I107
sg10
g11
(S'\x07\xd8\x08\r\x00\x00\x00\x00\x00\x00'
p3371
tp3372
Rp3373
sa(dp3374
g2
VPG-13
p3375
sg4
VGarry Marshall
p3376
sg6
VValentine's Day
p3377
sg8
I110485654
sg9
I117
sg10
g11
(S'\x07\xda\x02\x0c\x00\x00\x00\x00\x00\x00'
p3378
tp3379
Rp3380
sa(dp3381
g2
VPG-13
p3382
sg4
Nsg6
VThe Grudge
p3383
sg8
I110359362
sg9
I96
sg10
g11
(S'\x07\xd4\n\x16\x00\x00\x00\x00\x00\x00'
p3384
tp3385
Rp3386
sa(dp3387
g2
VPG-13
p3388
sg4
VDean Parisot
p3389
sg6
VFun with Dick and Jane
p3390
sg8
I110332737
sg9
I90
sg10
g11
(S'\x07\xd5\x0c\x15\x00\x00\x00\x00\x00\x00'
p3391
tp3392
Rp3393
sa(dp3394
g2
VPG
p3395
sg4
VMark S. Waters
p3396
sg6
VFreaky Friday
p3397
sg8
I110230332
sg9
I97
sg10
g11
(S'\x07\xd3\x08\x06\x00\x00\x00\x00\x00\x00'
p3398
tp3399
Rp3400
sa(dp3401
g2
VPG
p3402
sg4
VAdam Shankman
p3403
sg6
VBedtime Stories
p3404
sg8
I110101975
sg9
I95
sg10
g11
(S'\x07\xd8\x0c\x19\x00\x00\x00\x00\x00\x00'
p3405
tp3406
Rp3407
sa(dp3408
g2
VPG-13
p3409
sg4
VDavid Zucker
p3410
sg6
VScary Movie 3
p3411
sg8
I110003217
sg9
I90
sg10
g11
(S'\x07\xd3\n\x18\x00\x00\x00\x00\x00\x00'
p3412
tp3413
Rp3414
sa(dp3415
g2
VPG
p3416
sg4
Nsg6
VStar Trek IV: The Voyage Home
p3417
sg8
I109713132
sg9
I109
sg10
g11
(S'\x07\xc2\x0b\x1a\x00\x00\x00\x00\x00\x00'
p3418
tp3419
Rp3420
sa(dp3421
g2
VR
p3422
sg4
VJudd Apatow
p3423
sg6
VThe 40-Year-Old Virgin
p3424
sg8
I109449237
sg9
I116
sg10
g11
(S'\x07\xd5\x08\x13\x00\x00\x00\x00\x00\x00'
p3425
tp3426
Rp3427
sa(dp3428
g2
VPG
p3429
sg4
Nsg6
VCrocodile Dundee II
p3430
sg8
I109306210
sg9
I110
sg10
g11
(S'\x07\xc4\x05\x19\x00\x00\x00\x00\x00\x00'
p3431
tp3432
Rp3433
sa(dp3434
g2
VPG-13
p3435
sg4
Nsg6
VCouples Retreat
p3436
sg8
I109204945
sg9
I107
sg10
g11
(S'\x07\xd9\n\t\x00\x00\x00\x00\x00\x00'
p3437
tp3438
Rp3439
sa(dp3440
g2
VR
p3441
sg4
Nsg6
VOne Flew Over the Cuckoo's Nest
p3442
sg8
I108981275
sg9
I133
sg10
g11
(S'\x07\xb7\x0b\x14\x00\x00\x00\x00\x00\x00'
p3443
tp3444
Rp3445
sa(dp3446
g2
VR
p3447
sg4
VJoel Schumacher
p3448
sg6
VA Time to Kill
p3449
sg8
I108766007
sg9
I149
sg10
g11
(S'\x07\xcc\x07\x1a\x00\x00\x00\x00\x00\x00'
p3450
tp3451
Rp3452
sa.