(lp0
S'could not fetch http://www.boxofficemojo.com/movies/?id=scorpionking.htm'
p1
aS'could not fetch http://www.boxofficemojo.com/movies/?id=blade2.htm'
p2
aS'could not fetch http://www.boxofficemojo.com/movies/?id=cheechandchongscorsicanbros..htm'
p3
aS'could not fetch http://www.boxofficemojo.com/movies/?id=raidersofthelostark.htm'
p4
aS'could not fetch http://www.boxofficemojo.com/movies/?id=superman2.htm'
p5
aS'could not fetch http://www.boxofficemojo.com/movies/?id=arthur.htm'
p6
aS'could not fetch http://www.boxofficemojo.com/movies/?id=stripes.htm'
p7
aS'could not fetch http://www.boxofficemojo.com/movies/?id=cannonballrun.htm'
p8
aS'could not fetch http://www.boxofficemojo.com/movies/?id=foryoureyesonly.htm'
p9
aS'could not fetch http://www.boxofficemojo.com/movies/?id=fourseasons.htm'
p10
aS'could not fetch http://www.boxofficemojo.com/movies/?id=timebandits.htm'
p11
aS'could not fetch http://www.boxofficemojo.com/movies/?id=absenceofmalice.htm'
p12
aS'could not fetch http://www.boxofficemojo.com/movies/?id=sharkysmachine.htm'
p13
aS'could not fetch http://www.boxofficemojo.com/movies/?id=excalibur.htm'
p14
aS'could not fetch http://www.boxofficemojo.com/movies/?id=historyoftheworldpart1.htm'
p15
aS'could not fetch http://www.boxofficemojo.com/movies/?id=bustinloose.htm'
p16
aS'could not fetch http://www.boxofficemojo.com/movies/?id=greatmuppetcaper.htm'
p17
aS'could not fetch http://www.boxofficemojo.com/movies/?id=endlesslove.htm'
p18
aS'could not fetch http://www.boxofficemojo.com/movies/?id=americanwerewolfinlondon.htm'
p19
aS'could not fetch http://www.boxofficemojo.com/movies/?id=neighbors.htm'
p20
aS'could not fetch http://www.boxofficemojo.com/movies/?id=cinderella81.htm'
p21
aS'could not fetch http://www.boxofficemojo.com/movies/?id=modernproblems.htm'
p22
aS'could not fetch http://www.boxofficemojo.com/movies/?id=halloween2.htm'
p23
aS'could not fetch http://www.boxofficemojo.com/movies/?id=bodyheat.htm'
p24
aS'could not fetch http://www.boxofficemojo.com/movies/?id=friday13th2.htm'
p25
aS'could not fetch http://www.boxofficemojo.com/movies/?id=omen3.htm'
p26
aS'could not fetch http://www.boxofficemojo.com/movies/?id=incredibleshrinkingwoman.htm'
p27
aS'could not fetch http://www.boxofficemojo.com/movies/?id=undertherainbow.htm'
p28
aS'could not fetch http://www.boxofficemojo.com/movies/?id=outland.htm'
p29
aS'could not fetch http://www.boxofficemojo.com/movies/?id=continentaldivide.htm'
p30
aS'could not fetch http://www.boxofficemojo.com/movies/?id=nighthawks.htm'
p31
aS'could not fetch http://www.boxofficemojo.com/movies/?id=dragonslayer.htm'
p32
aS'could not fetch http://www.boxofficemojo.com/movies/?id=legendoftheloneranger.htm'
p33
aS'could not fetch http://www.boxofficemojo.com/movies/?id=backroads.htm'
p34
aS'could not fetch http://www.boxofficemojo.com/movies/?id=ragtime.htm'
p35
aS'could not fetch http://www.boxofficemojo.com/movies/?id=rollover.htm'
p36
aS'could not fetch http://www.boxofficemojo.com/movies/?id=wolfen.htm'
p37
aS'could not fetch http://www.boxofficemojo.com/movies/?id=princeofthecity.htm'
p38
aS'could not fetch http://www.boxofficemojo.com/movies/?id=funhouse.htm'
p39
aS'could not fetch http://www.boxofficemojo.com/movies/?id=studentbodies.htm'
p40
aS'could not fetch http://www.boxofficemojo.com/movies/?id=allnightlong.htm'
p41
aS'could not fetch http://www.boxofficemojo.com/movies/?id=pursuitofdbcooper.htm'
p42
aS'could not fetch http://www.boxofficemojo.com/movies/?id=zootsuit.htm'
p43
aS'could not fetch http://www.boxofficemojo.com/movies/?id=modernromance.htm'
p44
aS'could not fetch http://www.boxofficemojo.com/movies/?id=hand.htm'
p45
aS'could not fetch http://www.boxofficemojo.com/movies/?id=heartbeeps.htm'
p46
aS'could not fetch http://www.boxofficemojo.com/movies/?id=thisiselvis.htm'
p47
aS'could not fetch http://www.boxofficemojo.com/movies/?id=sphinx.htm'
p48
aS'could not fetch http://www.boxofficemojo.com/movies/?id=honkytonkfreeway.htm'
p49
aS'could not fetch http://www.boxofficemojo.com/movies/?id=raggedyman.htm'
p50
aS'could not fetch http://www.boxofficemojo.com/movies/?id=kingofthemountain.htm'
p51
aS'could not fetch http://www.boxofficemojo.com/movies/?id=silenceofthenorth.htm'
p52
aS'could not fetch http://www.boxofficemojo.com/movies/?id=eyesofastranger.htm'
p53
aS'could not fetch http://www.boxofficemojo.com/movies/?id=cattleannieandlittlebritches.htm'
p54
aS'could not fetch http://www.boxofficemojo.com/movies/?id=starwars5.htm'
p55
aS'could not fetch http://www.boxofficemojo.com/movies/?id=9to5.htm'
p56
aS'could not fetch http://www.boxofficemojo.com/movies/?id=stircrazy.htm'
p57
aS'could not fetch http://www.boxofficemojo.com/movies/?id=anywhichwayyoucan.htm'
p58
aS'could not fetch http://www.boxofficemojo.com/movies/?id=privatebenjamin.htm'
p59
aS'could not fetch http://www.boxofficemojo.com/movies/?id=coalminersdaughter.htm'
p60
aS'could not fetch http://www.boxofficemojo.com/movies/?id=smokeyandthebandit2.htm'
p61
aS'could not fetch http://www.boxofficemojo.com/movies/?id=bluesbrothers.htm'
p62
aS'could not fetch http://www.boxofficemojo.com/movies/?id=ordinarypeople.htm'
p63
aS'could not fetch http://www.boxofficemojo.com/movies/?id=popeye.htm'
p64
aS'could not fetch http://www.boxofficemojo.com/movies/?id=shining.htm'
p65
aS'could not fetch http://www.boxofficemojo.com/movies/?id=cheechchong2.htm'
p66
aS'could not fetch http://www.boxofficemojo.com/movies/?id=caddyshack.htm'
p67
aS'could not fetch http://www.boxofficemojo.com/movies/?id=friday13th.htm'
p68
aS'could not fetch http://www.boxofficemojo.com/movies/?id=brubaker.htm'
p69
aS'could not fetch http://www.boxofficemojo.com/movies/?id=flashgordon.htm'
p70
aS'could not fetch http://www.boxofficemojo.com/movies/?id=broncobilly.htm'
p71
aS'could not fetch http://www.boxofficemojo.com/movies/?id=ragingbull.htm'
p72
aS'could not fetch http://www.boxofficemojo.com/movies/?id=xanadu.htm'
p73
aS'could not fetch http://www.boxofficemojo.com/movies/?id=americangigolo.htm'
p74
aS'could not fetch http://www.boxofficemojo.com/movies/?id=mybodyguard.htm'
p75
aS'could not fetch http://www.boxofficemojo.com/movies/?id=fame.htm'
p76
aS'could not fetch http://www.boxofficemojo.com/movies/?id=alteredstates.htm'
p77
aS'could not fetch http://www.boxofficemojo.com/movies/?id=honeysucklerose.htm'
p78
aS'could not fetch http://www.boxofficemojo.com/movies/?id=heroatlarge.htm'
p79
aS'could not fetch http://www.boxofficemojo.com/movies/?id=longriders.htm'
p80
aS'could not fetch http://www.boxofficemojo.com/movies/?id=island.htm'
p81
aS'could not fetch http://www.boxofficemojo.com/movies/?id=firstfamily.htm'
p82
aS'could not fetch http://www.boxofficemojo.com/movies/?id=nudebomb.htm'
p83
aS'could not fetch http://www.boxofficemojo.com/movies/?id=ohgodbook2.htm'
p84
aS'could not fetch http://www.boxofficemojo.com/movies/?id=competition.htm'
p85
aS'could not fetch http://www.boxofficemojo.com/movies/?id=whollymoses.htm'
p86
aS'could not fetch http://www.boxofficemojo.com/movies/?id=lastmarriedcoupleinamerica.htm'
p87
aS'could not fetch http://www.boxofficemojo.com/movies/?id=fiendishplotoffumanchu.htm'
p88
aS'could not fetch http://www.boxofficemojo.com/movies/?id=stardustmemories.htm'
p89
aS'could not fetch http://www.boxofficemojo.com/movies/?id=somewhereintime.htm'
p90
aS'could not fetch http://www.boxofficemojo.com/movies/?id=formula.htm'
p91
aS'could not fetch http://www.boxofficemojo.com/movies/?id=bigbrawl.htm'
p92
aS'could not fetch http://www.boxofficemojo.com/movies/?id=awakening.htm'
p93
aS'could not fetch http://www.boxofficemojo.com/movies/?id=foxes.htm'
p94
aS'could not fetch http://www.boxofficemojo.com/movies/?id=wherethebuffaloroam.htm'
p95
aS'could not fetch http://www.boxofficemojo.com/movies/?id=gongshowmovie.htm'
p96
aS'could not fetch http://www.boxofficemojo.com/movies/?id=motelhell80.htm'
p97
aS'could not fetch http://www.boxofficemojo.com/movies/?id=littlemissmarker.htm'
p98
aS'could not fetch http://www.boxofficemojo.com/movies/?id=ohheavenlydog.htm'
p99
aS'could not fetch http://www.boxofficemojo.com/movies/?id=divinemadness.htm'
p100
aS'could not fetch http://www.boxofficemojo.com/movies/?id=ingodwetrust.htm'
p101
aS'could not fetch http://www.boxofficemojo.com/movies/?id=heknowsyourealone.htm'
p102
aS'could not fetch http://www.boxofficemojo.com/movies/?id=roadie.htm'
p103
aS'could not fetch http://www.boxofficemojo.com/movies/?id=gloria80.htm'
p104
aS'could not fetch http://www.boxofficemojo.com/movies/?id=jaws280.htm'
p105
aS'could not fetch http://www.boxofficemojo.com/movies/?id=resurrection.htm'
p106
aS'could not fetch http://www.boxofficemojo.com/movies/?id=hideinplainsight.htm'
p107
aS'could not fetch http://www.boxofficemojo.com/movies/?id=guyanacultofthedamned.htm'
p108
aS'could not fetch http://www.boxofficemojo.com/movies/?id=whentimeranout.htm'
p109
aS'could not fetch http://www.boxofficemojo.com/movies/?id=ffolkes.htm'
p110
aS'could not fetch http://www.boxofficemojo.com/movies/?id=lovingcouples.htm'
p111
aS'could not fetch http://www.boxofficemojo.com/movies/?id=idolmaker.htm'
p112
aS'could not fetch http://www.boxofficemojo.com/movies/?id=gildalive.htm'
p113
aS'could not fetch http://www.boxofficemojo.com/movies/?id=windows.htm'
p114
aS'could not fetch http://www.boxofficemojo.com/movies/?id=justtellmewhatyouwant.htm'
p115
aS'could not fetch http://www.boxofficemojo.com/movies/?id=whywouldilie.htm'
p116
aS'could not fetch http://www.boxofficemojo.com/movies/?id=heartbeat.htm'
p117
aS'could not fetch http://www.boxofficemojo.com/movies/?id=onetrickpony.htm'
p118
aS'could not fetch http://www.boxofficemojo.com/movies/?id=thoselipsthoseeyes.htm'
p119
aS'could not fetch http://www.boxofficemojo.com/movies/?id=smallcircleoffriends.htm'
p120
a.